; ModuleID = 'i2_wrap_matrix_vector_mul.ll'
source_filename = "/home/synthara/VersalPrjs/LDRD/rtda_demo/aieml7/Work/aie/ir/i2_wrap_matrix_vector_mul.cpp"
target datalayout = "e-i8:8:8-i16:16:16-i32:32:32-i64:32:32-f32:32:32-f64:32:32-p:32:32:32:32:8-s0:256:256-a0:8:8-S256-n32:64-P1-p0:20:32:32:32:8-p1:20:32:32:32:8-p2:20:32:32:32:8-p3:20:32:32:32:8-p4:20:32:32:32:8-p5:20:32:32:32:8-p6:20:32:32:32:8-p7:20:32:32:32:8-p8:20:32:32:32:8-p9:20:32:32:32:8-p10:20:32:32:32:8-p11:20:32:32:32:8-p12:20:32:32:32:8-p13:20:32:32:32:8-p14:20:32:32:32:8-p15:20:32:32:32:8"
target triple = "pdarch-unknown-unknown-elf"

%"class.xf::dsp::aie::blas::matrix_vector_mul::matrix_vector_mul" = type { %"class.xf::dsp::aie::blas::matrix_vector_mul::kernelMatVecMulClass" }
%"class.xf::dsp::aie::blas::matrix_vector_mul::kernelMatVecMulClass" = type { ptr }
%class.anon = type { i8 }
%"struct.aie::detail::utils::iteration_dim" = type { i8 }
%"struct.xf::dsp::aie::blas::matrix_vector_mul::T_inputIF" = type { ptr, ptr, ptr, ptr, ptr }
%"struct.xf::dsp::aie::blas::matrix_vector_mul::T_outputIF" = type { ptr, ptr, ptr, ptr }
%"struct.adf::detail::io_buffer_base" = type { ptr }
%"class.aie::vector" = type { %"class.aie::detail::vector_base" }
%"class.aie::detail::vector_base" = type { %struct.v8float }
%struct.v8float = type { %struct.ipd.custom_type.v64int4.v64int4 }
%struct.ipd.custom_type.v64int4.v64int4 = type { i256 }
%"class.aie::accum" = type { %"class.aie::detail::accum_base" }
%"class.aie::detail::accum_base" = type { %struct.v8accfloat }
%struct.v8accfloat = type { %struct.ipd.custom_type.v8acc32.v8acc32 }
%struct.ipd.custom_type.v8acc32.v8acc32 = type { i256 }
%"class.aie::vector_elem_ref" = type { ptr, i32 }
%"struct.aie::unary_op" = type { %"struct.aie::unary_op_common" }
%"struct.aie::unary_op_common" = type { %"class.aie::accum" }
%"class.aie::tile" = type { i8 }
%"class.aie::detail::tile" = type { i8 }
%"class.aie::vector.0" = type { %"class.aie::detail::vector_base.1" }
%"class.aie::detail::vector_base.1" = type { %struct.v16float }
%struct.v16float = type { %struct.ipd.custom_type.v128int4.v128int4 }
%struct.ipd.custom_type.v128int4.v128int4 = type { i512 }
%struct.v16int32 = type { %struct.ipd.custom_type.v128int4.v128int4 }
%"class.aie::accum.2" = type { %"class.aie::detail::accum_base.3" }
%"class.aie::detail::accum_base.3" = type { %struct.v16accfloat }
%struct.v16accfloat = type { %struct.ipd.custom_type.v16acc32.v16acc32 }
%struct.ipd.custom_type.v16acc32.v16acc32 = type { i512 }
%struct.ipd.custom_type.uint1_t.uint1_t = type { i1 }
%"struct.aie::unary_op.4" = type { %"struct.aie::unary_op_common.5" }
%"struct.aie::unary_op_common.5" = type { %"class.aie::vector_elem_ref" }
%"struct.aie::unary_op.6" = type { %"struct.aie::unary_op_common.7" }
%"struct.aie::unary_op_common.7" = type { %"class.aie::vector" }
%"class.aie::vector_elem_const_ref" = type { ptr, i32 }
%class.anon.8 = type { ptr, ptr, ptr, ptr, ptr }
%struct.v32bfloat16 = type { %struct.ipd.custom_type.v128int4.v128int4 }
%struct.v16bfloat16 = type { %struct.ipd.custom_type.v64int4.v64int4 }
%struct.v32uint16 = type { %struct.ipd.custom_type.v128int4.v128int4 }
%struct.ipd.custom_type.uint4_t.uint4_t = type { i4 }
%struct.ipd.custom_type.uint5_t.uint5_t = type { i5 }

$_ZN2xf3dsp3aie4blas17matrix_vector_mul17matrix_vector_mulIffLj128ELj768ELj0ELj0ELj0ELj1ELj12ELj1ELj0ELj0ELj1ELj9ELb1ELb1EE18matVecMulMiddleRtpERA8192_KfRN3adf9io_bufferIfNS9_9direction2inENS9_16io_buffer_configINS9_7extentsIJLj4294967295EEEENS9_7locking4syncENS9_10addressing6linearENS9_6marginILj0EEEEEEEP13input_cascadeI8accfloatvEP14output_cascadeISQ_vE = comdat any

$_ZN2xf3dsp3aie4blas17matrix_vector_mul9T_inputIFIffEC2Ev = comdat any

$_ZN2xf3dsp3aie4blas17matrix_vector_mul10T_outputIFIffEC2Ev = comdat any

$_ZNK3adf9io_bufferIfNS_9direction2inENS_16io_buffer_configINS_7extentsIJLj4294967295EEEENS_7locking4syncENS_10addressing6linearENS_6marginILj0EEEEEE4dataEv = comdat any

$_ZN2xf3dsp3aie4blas17matrix_vector_mul20kernelMatVecMulClassIffLj128ELj768ELj0ELj0ELj0ELj1ELj12ELj1ELj0ELj0ELj1ELj9ELb1ELb1EE15matVecMulKernelENS3_9T_inputIFIffEENS3_10T_outputIFIffEE = comdat any

$_ZN2xf3dsp3aie4blas17matrix_vector_mul17matrix_vector_mulIffLj128ELj768ELj0ELj0ELj0ELj1ELj12ELj1ELj0ELj0ELj1ELj9ELb1ELb1EEC2Ev = comdat any

$_ZN2xf3dsp3aie4blas17matrix_vector_mul20kernelMatVecMulClassIffLj128ELj768ELj0ELj0ELj0ELj1ELj12ELj1ELj0ELj0ELj1ELj9ELb1ELb1EE19matVecMulSelectArchENS3_9T_inputIFIffEENS3_10T_outputIFIffEE = comdat any

$_ZN2xf3dsp3aie4blas17matrix_vector_mul20kernelMatVecMulClassIffLj128ELj768ELj0ELj0ELj0ELj1ELj12ELj1ELj0ELj0ELj1ELj9ELb1ELb1EE14matVecMulBasicENS3_9T_inputIFIffEENS3_10T_outputIFIffEE = comdat any

$_ZN2xf3dsp3aie12set_rnd_modeILj0EEEvv = comdat any

$_ZN2xf3dsp3aie12set_sat_modeILj0EEEvv = comdat any

$_ZN3aie6vectorIfLj8EEC2Ev = comdat any

$_ZN3aie5accumI8accfloatLj8EEC2Ev = comdat any

$_ZN3aie5zerosIfLj8EEENS_6vectorIT_XT0_EEEv = comdat any

$_Z10readincr_vILj8E8accfloatEN3aie5accumIT0_XT_EEEP13input_cascadeIS3_vE = comdat any

$_ZN3aie3macINS_5accumI8accfloatLj8EEENS_15vector_elem_refIfLj8EEENS_6vectorIfLj8EEEEENS_17operand_base_typeINS_6detail5utils10remove_allIT_E4typeEE4typeERKSC_T0_RKT1_ = comdat any

$_ZN3aie6vectorIfLj8EEixEj = comdat any

$_Z9writeincrI8accfloatLj8EEvP14output_cascadeIT_vERKN3aie5accumIS2_XT0_EEE = comdat any

$_ZN3aie4tile7currentEv = comdat any

$_ZN3aie4tile12set_roundingENS_13rounding_modeE = comdat any

$_ZN3aie6detail4tile7currentEv = comdat any

$_ZN3aie4tileC2ERKNS_6detail4tileE = comdat any

$_ZN3aie6detail4tileC2Ev = comdat any

$_ZN3aie6detail4tile12set_roundingENS_13rounding_modeE = comdat any

$_Z7set_rndj = comdat any

$_ZN3aie4tile14set_saturationENS_15saturation_modeE = comdat any

$_ZN3aie6detail4tile14set_saturationENS_15saturation_modeE = comdat any

$_Z11set_satmodej = comdat any

$_ZN3aie6detail11vector_baseIfLj8EEC2Ev = comdat any

$_ZN3aie6detail14vector_storageIfLj8EE5undefEv = comdat any

$_Z13undef_v8floatv = comdat any

$_ZN3aie6detail13accum_storageILNS0_10AccumClassE2ELj32ELj8EE5undefEv = comdat any

$_Z16undef_v8accfloatv = comdat any

$_ZN3aie6detail10zeros_bitsILj32EfLj8EE3runEv = comdat any

$_ZN3aie6detail15zeros_bits_implILj32EfLj8EE3runEv = comdat any

$_ZN3aie6detail15zeros_bits_implILj32EfLj16EE3runEv = comdat any

$_ZNK3aie6vectorIfLj16EE7extractILj8EEENS0_IfXT_EEEj = comdat any

$_ZN3aie6vectorIfLj16EEC2Ev = comdat any

$_Z26broadcast_zero_to_v16floatv = comdat any

$_ZN3aie6vectorIfLj16EEC2E8v16float = comdat any

$_ZN3aie6detail14vector_storageIfLj16EE5undefEv = comdat any

$_Z14undef_v16floatv = comdat any

$_Z13broadcast_s32i = comdat any

$_ZN8v16floatC2E8v16int32 = comdat any

$_ZNK3aie6detail11vector_baseIfLj16EE7extractILj8EEENS1_IfXT_EEEj = comdat any

$_ZN3aie6vectorIfLj8EEC2ERKNS_6detail11vector_baseIfLj8EEE = comdat any

$_ZNK3aie6detail11vector_baseIfLj16EE14extract_helperILj8EEENS1_IfXT_EEEj = comdat any

$_ZN3aie6detail11vector_baseIfLj8EEC2E7v8float = comdat any

$_Z15extract_v8float8v16floati = comdat any

$_ZN12me_primitive6ext_xlE8v16float = comdat any

$_ZN12me_primitive6ext_xhE8v16float = comdat any

$_ZN3aie6detail3adf21cascade_stream_helperI8accfloatLj8EE8readincrEP13input_cascadeIS3_vE = comdat any

$_ZN3aie5accumI8accfloatLj16EEC2E11v16accfloat = comdat any

$_ZN3aie5accumI8accfloatLj8EE6insertILj8ES1_EERS2_jRKNS0_IT0_XT_EEE = comdat any

$_ZNK3aie5accumI8accfloatLj16EE7extractILj8EEENS0_IS1_XT_EEEj = comdat any

$_Z19get_scd_v16accfloatv = comdat any

$_Z19get_scd_v16accfloati = comdat any

$_Z16get_scd_v16acc32i = comdat any

$_ZN11v16accfloatC2E8v16acc32 = comdat any

$_ZN12me_primitive8scd_readE8v16acc327uint1_t = comdat any

$_ZN7uint1_tC2Ei = comdat any

$_ZN3aie6detail10accum_baseILNS0_10AccumClassE2ELj32ELj8EE6insertILj8ELj32EEERS3_jRKNS1_ILS2_2EXT0_EXT_EEE = comdat any

$_ZNK3aie6detail10accum_baseILNS0_10AccumClassE2ELj32ELj16EE7extractILj8EEENS1_ILS2_2ELj32EXT_EEEj = comdat any

$_ZN3aie5accumI8accfloatLj8EEC2ERKNS_6detail10accum_baseILNS3_10AccumClassE2ELj32ELj8EEE = comdat any

$_ZN3aie6detail10accum_baseILNS0_10AccumClassE2ELj32ELj8EEC2Ev = comdat any

$_ZN3aie6detail10accum_baseILNS0_10AccumClassE2ELj32ELj8EEC2E10v8accfloat = comdat any

$_Z18extract_v8accfloat11v16accfloati = comdat any

$_ZN12me_primitive6ext_blE11v16accfloat = comdat any

$_ZN12me_primitive6ext_bhE11v16accfloat = comdat any

$_ZN3aie3macINS_8unary_opINS_5accumI8accfloatLj8EEELNS_9OperationE1EEENS_15vector_elem_refIfLj8EEENS_6vectorIfLj8EEEEENS_17operand_base_typeINS_6detail5utils10remove_allIT_E4typeEE4typeERKSF_T0_RKT1_ = comdat any

$_ZN3aie6op_addINS_5accumI8accfloatLj8EEEEENS_8unary_opIT_LNS_9OperationE1EEERKS5_ = comdat any

$_ZN3aie3macINS_8unary_opINS_5accumI8accfloatLj8EEELNS_9OperationE1EEENS1_INS_15vector_elem_refIfLj8EEELS5_0EEENS_6vectorIfLj8EEEEENS_17operand_base_typeINS_6detail5utils10remove_allIT_E4typeEE4typeERKSG_T0_RKT1_ = comdat any

$_ZN3aie7op_noneINS_15vector_elem_refIfLj8EEEEENS_8unary_opIT_LNS_9OperationE0EEERKS4_ = comdat any

$_ZN3aie3macINS_8unary_opINS_5accumI8accfloatLj8EEELNS_9OperationE1EEENS1_INS_15vector_elem_refIfLj8EEELS5_0EEENS1_INS_6vectorIfLj8EEELS5_0EEEEENS_17operand_base_typeINS_6detail5utils10remove_allIT_E4typeEE4typeERKSH_T0_RKT1_ = comdat any

$_ZN3aie7op_noneINS_6vectorIfLj8EEEEENS_8unary_opIT_LNS_9OperationE0EEERKS4_ = comdat any

$_ZN3aie6detail8mul_bitsILNS0_10MulMacroOpE2ELj32ELj32EfLj32EfE3runILj8ELj8EJNS_5accumI8accfloatLj8EEEEEEDaNS_21vector_elem_const_refIfXT_EEEbRKNS_6vectorIfXT0_EEEbDpRKT1_ = comdat any

$_ZNK3aie15unary_op_commonINS_15vector_elem_refIfLj8EEELNS_9OperationE0EE7parent1Ev = comdat any

$_ZN3aie21vector_elem_const_refIfLj8EEC2ERKNS_15vector_elem_refIfLj8EEE = comdat any

$_ZN3aie6detail12get_mul_signINS_8unary_opINS_15vector_elem_refIfLj8EEELNS_9OperationE0EEEEEbT_ = comdat any

$_ZNK3aie15unary_op_commonINS_6vectorIfLj8EEELNS_9OperationE0EE7parent1Ev = comdat any

$_ZN3aie6detail12get_mul_signINS_8unary_opINS_6vectorIfLj8EEELNS_9OperationE0EEEEEbT_ = comdat any

$_ZNK3aie15unary_op_commonINS_5accumI8accfloatLj8EEELNS_9OperationE1EE7parent1Ev = comdat any

$_ZN3aie6detail13mul_bits_implILNS0_10MulMacroOpE2ELj32ELj32EfLj32EfE3runILj8EJNS_5accumI8accfloatLj8EEEEEENS5_IS6_XT_EEEfbRKNS_6vectorIfXT_EEEbDpRKT0_ = comdat any

$_ZNK3aie21vector_elem_const_refIfLj8EEcvfEv = comdat any

$_ZN3aie6detail13mul_bits_implILNS0_10MulMacroOpE2ELj32ELj32EfLj32EfE3runILj8EJNS_5accumI8accfloatLj8EEEEEENS5_IS6_XT_EEERKNS_6vectorIfXT_EEEbSC_bDpRKT0_ = comdat any

$_ZN3aie6detail14broadcast_bitsILj32EfLj8EE3runERKf = comdat any

$_ZN3aie6detail5utils12unroll_timesILj1EZNS0_13mul_bits_implILNS0_10MulMacroOpE2ELj32ELj32EfLj32EfE3runILj8EJNS_5accumI8accfloatLj8EEEEEENS7_IS8_XT_EEERKNS_6vectorIfXT_EEEbSE_bDpRKT0_EUlT_E_EEvOT0_ = comdat any

$_ZN3aie6detail5utils10unroll_forIjLj0ELj1ELj1EZNS0_13mul_bits_implILNS0_10MulMacroOpE2ELj32ELj32EfLj32EfE3runILj8EJNS_5accumI8accfloatLj8EEEEEENS7_IS8_XT_EEERKNS_6vectorIfXT_EEEbSE_bDpRKT0_EUlT_E_EEvOT3_ = comdat any

$_ZN3aie6detail5utils17unroll_for_helperIjLj0ELj1ELj0ELj1EE7executeIZNS0_13mul_bits_implILNS0_10MulMacroOpE2ELj32ELj32EfLj32EfE3runILj8EJNS_5accumI8accfloatLj8EEEEEENS9_ISA_XT_EEERKNS_6vectorIfXT_EEEbSG_bDpRKT0_EUlT_E_EEvOSL_ = comdat any

$_ZZN3aie6detail13mul_bits_implILNS0_10MulMacroOpE2ELj32ELj32EfLj32EfE3runILj8EJNS_5accumI8accfloatLj8EEEEEENS5_IS6_XT_EEERKNS_6vectorIfXT_EEEbSC_bDpRKT0_ENKUlT_E_clINS0_5utils13iteration_dimIjLj0ELj1ELj0EEEEEDaSH_ = comdat any

$_ZN3aie6detail5utils17unroll_for_helperIjLj0ELj1ELj1ELj1EE7executeIZNS0_13mul_bits_implILNS0_10MulMacroOpE2ELj32ELj32EfLj32EfE3runILj8EJNS_5accumI8accfloatLj8EEEEEENS9_ISA_XT_EEERKNS_6vectorIfXT_EEEbSG_bDpRKT0_EUlT_E_EEvOSL_ = comdat any

$_ZZN3aie6detail13mul_bits_implILNS0_10MulMacroOpE2ELj32ELj32EfLj32EfE10get_mul_opILj8EEEDavENKUlDpOT_E_clIJNS_6vectorIfLj16EEESB_NS_5accumI8accfloatLj16EEEEEEDaS7_ = comdat any

$_ZNK3aie6vectorIfLj8EE12grow_extractILj16EEENS0_IfXT_EEEj = comdat any

$_ZNK3aie6detail5utils13iteration_dimIjLj0ELj1ELj0EEcvjEv = comdat any

$_ZNK3aie5accumI8accfloatLj8EE12grow_extractILj16EEENS0_IS1_XT_EEEj = comdat any

$_Z11mac_elem_168v16floatS_11v16accfloat = comdat any

$_ZNK3aie6vectorIfLj16EEcv8v16floatEv = comdat any

$_ZNK3aie5accumI8accfloatLj16EEcv11v16accfloatEv = comdat any

$_Z25mac_elem_16_accuracy_fast8v16floatS_11v16accfloatiii = comdat any

$_ZN9me_detail31mac_elem_16_accuracy_fast_innerE8v16floatS0_11v16accfloatiii = comdat any

$_Z29broadcast_zero_to_v32bfloat16v = comdat any

$_Z28broadcast_one_to_v32bfloat16v = comdat any

$_Z6insert11v32bfloat16i11v16bfloat16 = comdat any

$_Z14to_v16bfloat1611v16accfloat = comdat any

$_ZN11v16accfloatC2E8v16float = comdat any

$_Z13msc_elem_16_211v32bfloat16S_11v16accfloat = comdat any

$_Z21addmac_elem_16_2_conf11v32bfloat16S_11v16accfloatS0_iiii = comdat any

$_Z18mac_elem_16_2_conf11v32bfloat16S_11v16accfloatiii = comdat any

$_Z18mul_elem_16_2_conf11v32bfloat16S_i = comdat any

$_Z13broadcast_u16t = comdat any

$_ZN11v32bfloat16C2E9v32uint16 = comdat any

$_ZN12me_primitive6upd_xlE11v32bfloat1611v16bfloat16 = comdat any

$_ZN12me_primitive6upd_xhE11v32bfloat1611v16bfloat16 = comdat any

$_ZN12me_primitive3srsE11v16accfloat7uint4_t7uint5_t = comdat any

$_Z7get_rndv = comdat any

$_ZN7uint4_tC2Ej = comdat any

$_Z14get_fp2bf_maskv = comdat any

$_ZN7uint5_tC2Ej = comdat any

$_ZNK7uint5_tcvjEv = comdat any

$_ZN9me_detail15compute_controlEiiiiiiiiiii = comdat any

$_ZN12me_primitive10mac16_confE11v32bfloat16S0_11v16accfloati7uint1_t7uint5_t = comdat any

$_Z17get_fpmulmac_maskv = comdat any

$_ZN12me_primitive13addmac16_confE11v32bfloat16S0_11v16accfloatS1_i7uint1_t7uint5_t = comdat any

$_ZN12me_primitive10mul16_confE11v32bfloat16S0_i7uint1_t7uint5_t = comdat any

$_ZNK3aie6vectorIfLj16EE9to_nativeEv = comdat any

$_ZNK3aie6detail11vector_baseIfLj16EE9to_nativeEv = comdat any

$_ZNK3aie6detail10accum_baseILNS0_10AccumClassE2ELj32ELj16EEcv11v16accfloatEv = comdat any

$_ZNK3aie6vectorIfLj8EE4growILj16EEENS0_IfXT_EEEj = comdat any

$_ZNK3aie6detail11vector_baseIfLj8EE4growILj16EEENS1_IfXT_EEEj = comdat any

$_ZN3aie6vectorIfLj16EEC2ERKNS_6detail11vector_baseIfLj16EEE = comdat any

$_ZN3aie6detail11vector_baseIfLj16EEC2Ev = comdat any

$_ZN3aie6detail10vector_setIfLj16EE3runERK7v8floatj = comdat any

$_ZN3aie6detail11vector_baseIfLj16EEC2E8v16float = comdat any

$_Z12set_v16floati7v8float = comdat any

$_ZN12me_primitive6set_xlE7v8float = comdat any

$_ZN12me_primitive6set_xhE7v8float = comdat any

$_ZNK3aie6detail5utils13iteration_dimIjLj0ELj1ELj0EE7currentEv = comdat any

$_ZNK3aie5accumI8accfloatLj8EE4growILj16EEENS0_IS1_XT_EEEv = comdat any

$_ZNK3aie6detail10accum_baseILNS0_10AccumClassE2ELj32ELj8EE4growILj16EEENS1_ILS2_2ELj32EXT_EEEv = comdat any

$_ZN3aie5accumI8accfloatLj16EEC2ERKNS_6detail10accum_baseILNS3_10AccumClassE2ELj32ELj16EEE = comdat any

$_ZN3aie6detail10accum_baseILNS0_10AccumClassE2ELj32ELj16EEC2Ev = comdat any

$_Z6concat10v8accfloatS_ = comdat any

$_ZN3aie6detail10accum_baseILNS0_10AccumClassE2ELj32ELj16EEC2E11v16accfloat = comdat any

$_ZN3aie6detail13accum_storageILNS0_10AccumClassE2ELj32ELj16EE5undefEv = comdat any

$_Z17undef_v16accfloatv = comdat any

$_ZN12me_primitive12concat_bm_amE10v8accfloatS0_ = comdat any

$_ZN3aie6detail19broadcast_bits_implILj32EfLj8EE3runERKf = comdat any

$_ZN3aie6detail19broadcast_bits_implILj32EfLj16EE3runERKf = comdat any

$_Z21broadcast_to_v16floatf = comdat any

$_ZNK3aie21vector_elem_const_refIfLj8EE3getEv = comdat any

$_ZNK3aie6vectorIfLj8EE3getEj = comdat any

$_ZNK3aie6detail11vector_baseIfLj8EE3getEj = comdat any

$_Z12extract_elem8v16floati = comdat any

$_ZN12me_primitive9ext_elem_E8v16floatii = comdat any

$_ZN3aie8unary_opINS_6vectorIfLj8EEELNS_9OperationE0EECI2NS_15unary_op_commonIS2_LS3_0EEEES2_ = comdat any

$_ZN3aie15unary_op_commonINS_6vectorIfLj8EEELNS_9OperationE0EEC2ES2_ = comdat any

$_ZN3aie8unary_opINS_15vector_elem_refIfLj8EEELNS_9OperationE0EECI2NS_15unary_op_commonIS2_LS3_0EEEES2_ = comdat any

$_ZN3aie15unary_op_commonINS_15vector_elem_refIfLj8EEELNS_9OperationE0EEC2ES2_ = comdat any

$_ZN3aie8unary_opINS_5accumI8accfloatLj8EEELNS_9OperationE1EECI2NS_15unary_op_commonIS3_LS4_1EEEES3_ = comdat any

$_ZN3aie15unary_op_commonINS_5accumI8accfloatLj8EEELNS_9OperationE1EEC2ES3_ = comdat any

$_ZN3aie6vectorIfLj8EE8elem_refEj = comdat any

$_ZN3aie15vector_elem_refIfLj8EEC2ERNS_6vectorIfLj8EEEj = comdat any

$_ZN3aie6detail3adf21cascade_stream_helperI8accfloatLj8EE9writeincrEP14output_cascadeIS3_vENS_5accumIS3_Lj8EEE = comdat any

$_Z7put_mcd11v16accfloat = comdat any

$_Z7put_mcd11v16accfloati = comdat any

$_Z7put_mcd8v16acc32i = comdat any

$_ZN8v16acc32C2E11v16accfloat = comdat any

$_ZN12me_primitive9mcd_writeE8v16acc327uint1_t = comdat any

$_ZN2xf3dsp3aie4blas17matrix_vector_mul20kernelMatVecMulClassIffLj128ELj768ELj0ELj0ELj0ELj1ELj12ELj1ELj0ELj0ELj1ELj9ELb1ELb1EEC2Ev = comdat any

@i2 = dso_local global %"class.xf::dsp::aie::blas::matrix_vector_mul::matrix_vector_mul" zeroinitializer, align 4, !dbg !0
@_ZN12me_primitive11control_rndE = external dso_local global i32, align 4
@_ZN12me_primitive11control_satE = external dso_local global i32, align 4
@__const._ZN3aie6detail13mul_bits_implILNS0_10MulMacroOpE2ELj32ELj32EfLj32EfE3runILj8EJNS_5accumI8accfloatLj8EEEEEENS5_IS6_XT_EEERKNS_6vectorIfXT_EEEbSC_bDpRKT0_.mul_op = private unnamed_addr constant %class.anon undef, align 1
@__const._ZN3aie6detail5utils17unroll_for_helperIjLj0ELj1ELj0ELj1EE7executeIZNS0_13mul_bits_implILNS0_10MulMacroOpE2ELj32ELj32EfLj32EfE3runILj8EJNS_5accumI8accfloatLj8EEEEEENS9_ISA_XT_EEERKNS_6vectorIfXT_EEEbSG_bDpRKT0_EUlT_E_EEvOSL_.it = private unnamed_addr constant %"struct.aie::detail::utils::iteration_dim" undef, align 1
@llvm.global_ctors = appending global [1 x { i32, ptr addrspace(1), ptr }] [{ i32, ptr addrspace(1), ptr } { i32 65535, ptr addrspace(1) @_GLOBAL__sub_I_i2_wrap_matrix_vector_mul.cpp, ptr null }]

; Function Attrs: mustprogress noinline nounwind
define weak_odr dso_local void @_ZN2xf3dsp3aie4blas17matrix_vector_mul17matrix_vector_mulIffLj128ELj768ELj0ELj0ELj0ELj1ELj12ELj1ELj0ELj0ELj1ELj9ELb1ELb1EE18matVecMulMiddleRtpERA8192_KfRN3adf9io_bufferIfNS9_9direction2inENS9_16io_buffer_configINS9_7extentsIJLj4294967295EEEENS9_7locking4syncENS9_10addressing6linearENS9_6marginILj0EEEEEEEP13input_cascadeI8accfloatvEP14output_cascadeISQ_vE(ptr nonnull align 4 dereferenceable(4) %this, ptr nonnull align 4 dereferenceable(32768) %inMatrixA, ptr chesscopy noalias nonnull align 4 dereferenceable(8) %inWindowB, ptr %inCascade, ptr %outCascade) addrspace(1) #0 comdat align 2 !dbg !1529 !noalias !1539 {
entry:
  %this.addr = alloca ptr, align 4
  %inMatrixA.addr = alloca ptr, align 4
  %inWindowB.addr = alloca ptr, align 4
  %inCascade.addr = alloca ptr, align 4
  %outCascade.addr = alloca ptr, align 4
  %inInterface = alloca %"struct.xf::dsp::aie::blas::matrix_vector_mul::T_inputIF", align 4
  %outInterface = alloca %"struct.xf::dsp::aie::blas::matrix_vector_mul::T_outputIF", align 4
  %agg.tmp = alloca %"struct.xf::dsp::aie::blas::matrix_vector_mul::T_inputIF", align 4
  %agg.tmp5 = alloca %"struct.xf::dsp::aie::blas::matrix_vector_mul::T_outputIF", align 4
  store ptr %this, ptr %this.addr, align 4, !tbaa !1542, !noalias !1546
  call addrspace(1) void @llvm.dbg.declare(metadata ptr %this.addr, metadata !1531, metadata !DIExpression()), !dbg !1550
  store ptr %inMatrixA, ptr %inMatrixA.addr, align 4, !tbaa !1542, !noalias !1546
  call addrspace(1) void @llvm.dbg.declare(metadata ptr %inMatrixA.addr, metadata !1533, metadata !DIExpression()), !dbg !1551
  %0 = call addrspace(1) ptr @llvm.noalias.decl.p0.p0.i32(ptr %inWindowB.addr, i32 0, metadata !1552), !noalias !1546
  store ptr %inWindowB, ptr %inWindowB.addr, align 4, !tbaa !1542, !noalias !1546
  call addrspace(1) void @llvm.dbg.declare(metadata ptr %inWindowB.addr, metadata !1534, metadata !DIExpression()), !dbg !1553
  store ptr %inCascade, ptr %inCascade.addr, align 4, !tbaa !1542, !noalias !1546
  call addrspace(1) void @llvm.dbg.declare(metadata ptr %inCascade.addr, metadata !1535, metadata !DIExpression()), !dbg !1554
  store ptr %outCascade, ptr %outCascade.addr, align 4, !tbaa !1542, !noalias !1546
  call addrspace(1) void @llvm.dbg.declare(metadata ptr %outCascade.addr, metadata !1536, metadata !DIExpression()), !dbg !1555
  %this1 = load ptr, ptr %this.addr, align 4, !noalias !1546
  store %"struct.xf::dsp::aie::blas::matrix_vector_mul::T_inputIF" undef, ptr %inInterface, align 4, !dbg !1556, !noalias !1546
  call addrspace(1) void @llvm.lifetime.start.p0(i64 20, ptr %inInterface) #22, !dbg !1556, !noalias !1546
  call addrspace(1) void @llvm.dbg.declare(metadata ptr %inInterface, metadata !1537, metadata !DIExpression()), !dbg !1557
  %1 = call addrspace(1) ptr @llvm.noalias.decl.p0.p0.i32(ptr %inInterface, i32 0, metadata !1558), !dbg !1556, !noalias !1546
  call addrspace(1) void @_ZN2xf3dsp3aie4blas17matrix_vector_mul9T_inputIFIffEC2Ev(ptr nonnull align 4 dereferenceable(20) %inInterface) #23, !dbg !1557, !noalias !1546
  store %"struct.xf::dsp::aie::blas::matrix_vector_mul::T_outputIF" undef, ptr %outInterface, align 4, !dbg !1559, !noalias !1546
  call addrspace(1) void @llvm.lifetime.start.p0(i64 16, ptr %outInterface) #22, !dbg !1559, !noalias !1546
  call addrspace(1) void @llvm.dbg.declare(metadata ptr %outInterface, metadata !1538, metadata !DIExpression()), !dbg !1560
  %2 = call addrspace(1) ptr @llvm.noalias.decl.p0.p0.i32(ptr %outInterface, i32 0, metadata !1561), !dbg !1559, !noalias !1546
  call addrspace(1) void @_ZN2xf3dsp3aie4blas17matrix_vector_mul10T_outputIFIffEC2Ev(ptr nonnull align 4 dereferenceable(16) %outInterface) #23, !dbg !1560, !noalias !1546
  %3 = load ptr, ptr %inWindowB.addr, align 4, !dbg !1562, !tbaa !1542, !noalias !1546
  %call = call addrspace(1) ptr @_ZNK3adf9io_bufferIfNS_9direction2inENS_16io_buffer_configINS_7extentsIJLj4294967295EEEENS_7locking4syncENS_10addressing6linearENS_6marginILj0EEEEEE4dataEv(ptr nonnull align 4 dereferenceable(8) %3) #24, !dbg !1563, !noalias !1546
  %inWindowB2 = getelementptr inbounds %"struct.xf::dsp::aie::blas::matrix_vector_mul::T_inputIF", ptr %inInterface, i32 0, i32 1, !dbg !1564
  store ptr %call, ptr %inWindowB2, align 4, !dbg !1565, !tbaa !1566, !noalias !1546
  %4 = load ptr, ptr %inCascade.addr, align 4, !dbg !1568, !tbaa !1542, !noalias !1546
  %inCascade3 = getelementptr inbounds %"struct.xf::dsp::aie::blas::matrix_vector_mul::T_inputIF", ptr %inInterface, i32 0, i32 4, !dbg !1569
  store ptr %4, ptr %inCascade3, align 4, !dbg !1570, !tbaa !1571, !noalias !1546
  %5 = load ptr, ptr %outCascade.addr, align 4, !dbg !1572, !tbaa !1542, !noalias !1546
  %outCascade4 = getelementptr inbounds %"struct.xf::dsp::aie::blas::matrix_vector_mul::T_outputIF", ptr %outInterface, i32 0, i32 3, !dbg !1573
  store ptr %5, ptr %outCascade4, align 4, !dbg !1574, !tbaa !1575, !noalias !1546
  %6 = load ptr, ptr %inMatrixA.addr, align 4, !dbg !1577, !tbaa !1542, !noalias !1546
  %arraydecay = getelementptr inbounds [8192 x float], ptr %6, i32 0, i32 0, !dbg !1577
  %m_inMatrixPtr = getelementptr inbounds %"class.xf::dsp::aie::blas::matrix_vector_mul::kernelMatVecMulClass", ptr %this1, i32 0, i32 0, !dbg !1578
  store ptr %arraydecay, ptr %m_inMatrixPtr, align 4, !dbg !1579, !tbaa !1580, !noalias !1546
  %7 = call addrspace(1) ptr @llvm.noalias.copy.guard.p0.p0(ptr %inInterface, ptr %1, metadata !1582, metadata !1558), !dbg !1583
  %8 = load %"struct.xf::dsp::aie::blas::matrix_vector_mul::T_inputIF", ptr %7, align 4, !dbg !1583, !tbaa !1584, !noalias !1546
  store %"struct.xf::dsp::aie::blas::matrix_vector_mul::T_inputIF" %8, ptr %agg.tmp, align 4, !dbg !1583, !tbaa !1584, !noalias !1546
  %9 = call addrspace(1) ptr @llvm.noalias.copy.guard.p0.p0(ptr %outInterface, ptr %2, metadata !1585, metadata !1561), !dbg !1586
  %10 = load %"struct.xf::dsp::aie::blas::matrix_vector_mul::T_outputIF", ptr %9, align 4, !dbg !1586, !tbaa !1587, !noalias !1546
  store %"struct.xf::dsp::aie::blas::matrix_vector_mul::T_outputIF" %10, ptr %agg.tmp5, align 4, !dbg !1586, !tbaa !1587, !noalias !1546
  %11 = call addrspace(1) ptr @llvm.noalias.copy.guard.p0.p0(ptr %agg.tmp5, ptr null, metadata !1585, metadata !1539), !dbg !1588
  %12 = load %"struct.xf::dsp::aie::blas::matrix_vector_mul::T_outputIF", ptr %11, align 4, !dbg !1588, !tbaa !1587, !noalias !1546
  call addrspace(1) void @_ZN2xf3dsp3aie4blas17matrix_vector_mul20kernelMatVecMulClassIffLj128ELj768ELj0ELj0ELj0ELj1ELj12ELj1ELj0ELj0ELj1ELj9ELb1ELb1EE15matVecMulKernelENS3_9T_inputIFIffEENS3_10T_outputIFIffEE(ptr nonnull align 4 dereferenceable(4) %this1, ptr %agg.tmp, %"struct.xf::dsp::aie::blas::matrix_vector_mul::T_outputIF" %12) #24, !dbg !1588, !noalias !1546
  call addrspace(1) void @llvm.lifetime.end.p0(i64 16, ptr %outInterface) #22, !dbg !1589
  call addrspace(1) void @llvm.lifetime.end.p0(i64 20, ptr %inInterface) #22, !dbg !1589
  ret void, !dbg !1589
}

; Function Attrs: nocallback nofree nosync nounwind speculatable willreturn memory(none)
declare void @llvm.dbg.declare(metadata, metadata, metadata) addrspace(1) #1

; Function Attrs: nounwind willreturn memory(inaccessiblemem: readwrite)
declare ptr @llvm.noalias.decl.p0.p0.i32(ptr, i32, metadata) addrspace(1) #2

; Function Attrs: nocallback nofree nosync nounwind willreturn memory(argmem: readwrite)
declare void @llvm.lifetime.start.p0(i64 immarg, ptr nocapture) addrspace(1) #3

; Function Attrs: inlinehint nounwind
define linkonce_odr dso_local void @_ZN2xf3dsp3aie4blas17matrix_vector_mul9T_inputIFIffEC2Ev(ptr nonnull align 4 dereferenceable(20) %this) unnamed_addr addrspace(1) #4 comdat align 2 !dbg !1590 {
entry:
  %this.addr = alloca ptr, align 4
  store ptr %this, ptr %this.addr, align 4, !tbaa !1542
  call addrspace(1) void @llvm.dbg.declare(metadata ptr %this.addr, metadata !1596, metadata !DIExpression()), !dbg !1598
  %this1 = load ptr, ptr %this.addr, align 4
  %inCascade = getelementptr inbounds %"struct.xf::dsp::aie::blas::matrix_vector_mul::T_inputIF", ptr %this1, i32 0, i32 4, !dbg !1599
  store ptr null, ptr %inCascade, align 4, !dbg !1599, !tbaa !1571
  ret void, !dbg !1600
}

; Function Attrs: inlinehint nounwind
define linkonce_odr dso_local void @_ZN2xf3dsp3aie4blas17matrix_vector_mul10T_outputIFIffEC2Ev(ptr nonnull align 4 dereferenceable(16) %this) unnamed_addr addrspace(1) #4 comdat align 2 !dbg !1601 {
entry:
  %this.addr = alloca ptr, align 4
  store ptr %this, ptr %this.addr, align 4, !tbaa !1542
  call addrspace(1) void @llvm.dbg.declare(metadata ptr %this.addr, metadata !1607, metadata !DIExpression()), !dbg !1609
  %this1 = load ptr, ptr %this.addr, align 4
  %outCascade = getelementptr inbounds %"struct.xf::dsp::aie::blas::matrix_vector_mul::T_outputIF", ptr %this1, i32 0, i32 3, !dbg !1610
  store ptr null, ptr %outCascade, align 4, !dbg !1610, !tbaa !1575
  ret void, !dbg !1611
}

; Function Attrs: inlinehint mustprogress nounwind
define linkonce_odr dso_local ptr @_ZNK3adf9io_bufferIfNS_9direction2inENS_16io_buffer_configINS_7extentsIJLj4294967295EEEENS_7locking4syncENS_10addressing6linearENS_6marginILj0EEEEEE4dataEv(ptr nonnull align 4 dereferenceable(8) %this) addrspace(1) #5 comdat align 2 !dbg !1612 !noalias !1624 {
entry:
  %this.addr = alloca ptr, align 4
  store ptr %this, ptr %this.addr, align 4, !tbaa !1542, !noalias !1624
  call addrspace(1) void @llvm.dbg.declare(metadata ptr %this.addr, metadata !1622, metadata !DIExpression()), !dbg !1627
  %this1 = load ptr, ptr %this.addr, align 4, !noalias !1624
  %_base = getelementptr inbounds %"struct.adf::detail::io_buffer_base", ptr %this1, i32 0, i32 0, !dbg !1628
  %0 = load ptr, ptr %_base, align 4, !dbg !1628, !tbaa !1630, !noalias !1624
  %1 = call addrspace(1) ptr @llvm.noalias.p0.p0.p0.i32(ptr %0, ptr null, ptr %_base, i32 0, metadata !1624), !dbg !1628, !tbaa !1630, !noalias !1624
  ret ptr %1, !dbg !1632
}

; Function Attrs: alwaysinline mustprogress nounwind
define linkonce_odr dso_local void @_ZN2xf3dsp3aie4blas17matrix_vector_mul20kernelMatVecMulClassIffLj128ELj768ELj0ELj0ELj0ELj1ELj12ELj1ELj0ELj0ELj1ELj9ELb1ELb1EE15matVecMulKernelENS3_9T_inputIFIffEENS3_10T_outputIFIffEE(ptr nonnull align 4 dereferenceable(4) %this, ptr %inInterface, %"struct.xf::dsp::aie::blas::matrix_vector_mul::T_outputIF" %outInterface.coerce) addrspace(1) #6 comdat align 2 !dbg !1633 !noalias !1638 {
entry:
  %outInterface = alloca %"struct.xf::dsp::aie::blas::matrix_vector_mul::T_outputIF", align 4
  %this.addr = alloca ptr, align 4
  %agg.tmp = alloca %"struct.xf::dsp::aie::blas::matrix_vector_mul::T_inputIF", align 4
  %agg.tmp2 = alloca %"struct.xf::dsp::aie::blas::matrix_vector_mul::T_outputIF", align 4
  store %"struct.xf::dsp::aie::blas::matrix_vector_mul::T_outputIF" %outInterface.coerce, ptr %outInterface, align 4, !noalias !1641
  store ptr %this, ptr %this.addr, align 4, !tbaa !1542, !noalias !1641
  call addrspace(1) void @llvm.dbg.declare(metadata ptr %this.addr, metadata !1635, metadata !DIExpression()), !dbg !1643
  call addrspace(1) void @llvm.dbg.declare(metadata ptr %inInterface, metadata !1636, metadata !DIExpression()), !dbg !1644
  %0 = call addrspace(1) ptr @llvm.noalias.decl.p0.p0.i32(ptr %outInterface, i32 0, metadata !1645), !noalias !1641
  call addrspace(1) void @llvm.dbg.declare(metadata ptr %outInterface, metadata !1637, metadata !DIExpression()), !dbg !1646
  %this1 = load ptr, ptr %this.addr, align 4, !noalias !1641
  %1 = call addrspace(1) ptr @llvm.noalias.copy.guard.p0.p0(ptr %inInterface, ptr null, metadata !1582, metadata !1638), !dbg !1647
  %2 = load %"struct.xf::dsp::aie::blas::matrix_vector_mul::T_inputIF", ptr %1, align 4, !dbg !1647, !tbaa !1584, !noalias !1641
  store %"struct.xf::dsp::aie::blas::matrix_vector_mul::T_inputIF" %2, ptr %agg.tmp, align 4, !dbg !1647, !tbaa !1584, !noalias !1641
  %3 = call addrspace(1) ptr @llvm.noalias.copy.guard.p0.p0(ptr %outInterface, ptr %0, metadata !1585, metadata !1645), !dbg !1648
  %4 = load %"struct.xf::dsp::aie::blas::matrix_vector_mul::T_outputIF", ptr %3, align 4, !dbg !1648, !tbaa !1587, !noalias !1641
  store %"struct.xf::dsp::aie::blas::matrix_vector_mul::T_outputIF" %4, ptr %agg.tmp2, align 4, !dbg !1648, !tbaa !1587, !noalias !1641
  %5 = call addrspace(1) ptr @llvm.noalias.copy.guard.p0.p0(ptr %agg.tmp2, ptr null, metadata !1585, metadata !1638), !dbg !1649
  %6 = load %"struct.xf::dsp::aie::blas::matrix_vector_mul::T_outputIF", ptr %5, align 4, !dbg !1649, !tbaa !1587, !noalias !1641
  call addrspace(1) void @_ZN2xf3dsp3aie4blas17matrix_vector_mul20kernelMatVecMulClassIffLj128ELj768ELj0ELj0ELj0ELj1ELj12ELj1ELj0ELj0ELj1ELj9ELb1ELb1EE19matVecMulSelectArchENS3_9T_inputIFIffEENS3_10T_outputIFIffEE(ptr nonnull align 4 dereferenceable(4) %this1, ptr %agg.tmp, %"struct.xf::dsp::aie::blas::matrix_vector_mul::T_outputIF" %6) #24, !dbg !1649, !noalias !1641
  ret void, !dbg !1650
}

; Function Attrs: nounwind willreturn memory(none)
declare ptr @llvm.noalias.copy.guard.p0.p0(ptr, ptr, metadata, metadata) addrspace(1) #7

; Function Attrs: nocallback nofree nosync nounwind willreturn memory(argmem: readwrite)
declare void @llvm.lifetime.end.p0(i64 immarg, ptr nocapture) addrspace(1) #3

; Function Attrs: nounwind
define internal void @__cxx_global_var_init() addrspace(1) #8 !dbg !1651 {
entry:
  call addrspace(1) void @_ZN2xf3dsp3aie4blas17matrix_vector_mul17matrix_vector_mulIffLj128ELj768ELj0ELj0ELj0ELj1ELj12ELj1ELj0ELj0ELj1ELj9ELb1ELb1EEC2Ev(ptr nonnull align 4 dereferenceable(4) @i2) #24, !dbg !1652
  ret void, !dbg !1652
}

; Function Attrs: nounwind
define linkonce_odr dso_local void @_ZN2xf3dsp3aie4blas17matrix_vector_mul17matrix_vector_mulIffLj128ELj768ELj0ELj0ELj0ELj1ELj12ELj1ELj0ELj0ELj1ELj9ELb1ELb1EEC2Ev(ptr nonnull align 4 dereferenceable(4) %this) unnamed_addr addrspace(1) #8 comdat align 2 !dbg !1653 {
entry:
  %this.addr = alloca ptr, align 4
  store ptr %this, ptr %this.addr, align 4, !tbaa !1542
  call addrspace(1) void @llvm.dbg.declare(metadata ptr %this.addr, metadata !1655, metadata !DIExpression()), !dbg !1656
  %this1 = load ptr, ptr %this.addr, align 4
  call addrspace(1) void @_ZN2xf3dsp3aie4blas17matrix_vector_mul20kernelMatVecMulClassIffLj128ELj768ELj0ELj0ELj0ELj1ELj12ELj1ELj0ELj0ELj1ELj9ELb1ELb1EEC2Ev(ptr nonnull align 4 dereferenceable(4) %this1) #24, !dbg !1657
  ret void, !dbg !1658
}

; Function Attrs: mustprogress nounwind
define dso_local ptr @_Z7i2_userv() addrspace(1) #9 !dbg !1659 {
entry:
  ret ptr @i2, !dbg !1662
}

; Function Attrs: nounwind speculatable willreturn memory(argmem: readwrite)
declare ptr @llvm.noalias.p0.p0.p0.i32(ptr, ptr, ptr, i32, metadata) addrspace(1) #10

; Function Attrs: alwaysinline mustprogress nounwind
define linkonce_odr dso_local void @_ZN2xf3dsp3aie4blas17matrix_vector_mul20kernelMatVecMulClassIffLj128ELj768ELj0ELj0ELj0ELj1ELj12ELj1ELj0ELj0ELj1ELj9ELb1ELb1EE19matVecMulSelectArchENS3_9T_inputIFIffEENS3_10T_outputIFIffEE(ptr nonnull align 4 dereferenceable(4) %this, ptr %inInterface, %"struct.xf::dsp::aie::blas::matrix_vector_mul::T_outputIF" %outInterface.coerce) addrspace(1) #6 comdat align 2 !dbg !1663 !noalias !1668 {
entry:
  %outInterface = alloca %"struct.xf::dsp::aie::blas::matrix_vector_mul::T_outputIF", align 4
  %this.addr = alloca ptr, align 4
  %agg.tmp = alloca %"struct.xf::dsp::aie::blas::matrix_vector_mul::T_inputIF", align 4
  %agg.tmp2 = alloca %"struct.xf::dsp::aie::blas::matrix_vector_mul::T_outputIF", align 4
  store %"struct.xf::dsp::aie::blas::matrix_vector_mul::T_outputIF" %outInterface.coerce, ptr %outInterface, align 4, !noalias !1671
  store ptr %this, ptr %this.addr, align 4, !tbaa !1542, !noalias !1671
  call addrspace(1) void @llvm.dbg.declare(metadata ptr %this.addr, metadata !1665, metadata !DIExpression()), !dbg !1673
  call addrspace(1) void @llvm.dbg.declare(metadata ptr %inInterface, metadata !1666, metadata !DIExpression()), !dbg !1674
  %0 = call addrspace(1) ptr @llvm.noalias.decl.p0.p0.i32(ptr %outInterface, i32 0, metadata !1675), !noalias !1671
  call addrspace(1) void @llvm.dbg.declare(metadata ptr %outInterface, metadata !1667, metadata !DIExpression()), !dbg !1676
  %this1 = load ptr, ptr %this.addr, align 4, !noalias !1671
  %1 = call addrspace(1) ptr @llvm.noalias.copy.guard.p0.p0(ptr %inInterface, ptr null, metadata !1582, metadata !1668), !dbg !1677
  %2 = load %"struct.xf::dsp::aie::blas::matrix_vector_mul::T_inputIF", ptr %1, align 4, !dbg !1677, !tbaa !1584, !noalias !1671
  store %"struct.xf::dsp::aie::blas::matrix_vector_mul::T_inputIF" %2, ptr %agg.tmp, align 4, !dbg !1677, !tbaa !1584, !noalias !1671
  %3 = call addrspace(1) ptr @llvm.noalias.copy.guard.p0.p0(ptr %outInterface, ptr %0, metadata !1585, metadata !1675), !dbg !1680
  %4 = load %"struct.xf::dsp::aie::blas::matrix_vector_mul::T_outputIF", ptr %3, align 4, !dbg !1680, !tbaa !1587, !noalias !1671
  store %"struct.xf::dsp::aie::blas::matrix_vector_mul::T_outputIF" %4, ptr %agg.tmp2, align 4, !dbg !1680, !tbaa !1587, !noalias !1671
  %5 = call addrspace(1) ptr @llvm.noalias.copy.guard.p0.p0(ptr %agg.tmp2, ptr null, metadata !1585, metadata !1668), !dbg !1681
  %6 = load %"struct.xf::dsp::aie::blas::matrix_vector_mul::T_outputIF", ptr %5, align 4, !dbg !1681, !tbaa !1587, !noalias !1671
  call addrspace(1) void @_ZN2xf3dsp3aie4blas17matrix_vector_mul20kernelMatVecMulClassIffLj128ELj768ELj0ELj0ELj0ELj1ELj12ELj1ELj0ELj0ELj1ELj9ELb1ELb1EE14matVecMulBasicENS3_9T_inputIFIffEENS3_10T_outputIFIffEE(ptr nonnull align 4 dereferenceable(4) %this1, ptr %agg.tmp, %"struct.xf::dsp::aie::blas::matrix_vector_mul::T_outputIF" %6) #24, !dbg !1681, !noalias !1671
  ret void, !dbg !1682
}

; Function Attrs: alwaysinline mustprogress nounwind
define linkonce_odr dso_local void @_ZN2xf3dsp3aie4blas17matrix_vector_mul20kernelMatVecMulClassIffLj128ELj768ELj0ELj0ELj0ELj1ELj12ELj1ELj0ELj0ELj1ELj9ELb1ELb1EE14matVecMulBasicENS3_9T_inputIFIffEENS3_10T_outputIFIffEE(ptr nonnull align 4 dereferenceable(4) %this, ptr %inInterface, %"struct.xf::dsp::aie::blas::matrix_vector_mul::T_outputIF" %outInterface.coerce) addrspace(1) #6 comdat align 2 !dbg !84 !noalias !1683 {
entry:
  %outInterface = alloca %"struct.xf::dsp::aie::blas::matrix_vector_mul::T_outputIF", align 4
  %this.addr = alloca ptr, align 4
  %dataA = alloca %"class.aie::vector", align 32
  %custom_type.tmp = alloca %"class.aie::vector", align 32
  %inPtrA = alloca ptr, align 4
  %dataB = alloca %"class.aie::vector", align 32
  %custom_type.tmp2 = alloca %"class.aie::vector", align 32
  %inPtrB = alloca ptr, align 4
  %acc = alloca %"class.aie::accum", align 32
  %custom_type.tmp3 = alloca %"class.aie::accum", align 32
  %blankVect = alloca %"class.aie::vector", align 32
  %outVect = alloca %"class.aie::vector", align 32
  %custom_type.tmp4 = alloca %"class.aie::vector", align 32
  %inMatrixBuff = alloca ptr, align 4
  %inMatrixPtrRtp = alloca ptr, align 4
  %matrixPtr = alloca ptr, align 4
  %matrixStartPtr = alloca ptr, align 4
  %vectorStartPtr = alloca ptr, align 4
  %outPtr = alloca ptr, align 4
  %frame = alloca i32, align 4
  %cleanup.dest.slot = alloca i32, align 4
  %idx = alloca i32, align 4
  %agg.tmp = alloca %"class.aie::accum", align 32
  %vecInB = alloca i32, align 4
  %jdx = alloca i32, align 4
  %agg.tmp23 = alloca %"class.aie::vector_elem_ref", align 4
  %agg.tmp26 = alloca %"class.aie::accum", align 32
  store %"struct.xf::dsp::aie::blas::matrix_vector_mul::T_outputIF" %outInterface.coerce, ptr %outInterface, align 4, !noalias !1686
  store ptr %this, ptr %this.addr, align 4, !tbaa !1542, !noalias !1686
  call addrspace(1) void @llvm.dbg.declare(metadata ptr %this.addr, metadata !179, metadata !DIExpression()), !dbg !1696
  call addrspace(1) void @llvm.dbg.declare(metadata ptr %inInterface, metadata !181, metadata !DIExpression()), !dbg !1697
  %0 = call addrspace(1) ptr @llvm.noalias.decl.p0.p0.i32(ptr %outInterface, i32 0, metadata !1698), !noalias !1686
  call addrspace(1) void @llvm.dbg.declare(metadata ptr %outInterface, metadata !182, metadata !DIExpression()), !dbg !1699
  %this1 = load ptr, ptr %this.addr, align 4, !noalias !1686
  call addrspace(1) void @_ZN2xf3dsp3aie12set_rnd_modeILj0EEEvv() #24, !dbg !1700, !noalias !1686
  call addrspace(1) void @_ZN2xf3dsp3aie12set_sat_modeILj0EEEvv() #24, !dbg !1701, !noalias !1686
  store %"class.aie::vector" undef, ptr %dataA, align 32, !dbg !1702, !noalias !1686
  call addrspace(1) void @llvm.lifetime.start.p0(i64 32, ptr %dataA) #22, !dbg !1702, !noalias !1686
  call addrspace(1) void @llvm.dbg.declare(metadata ptr %dataA, metadata !183, metadata !DIExpression()), !dbg !1703
  call addrspace(1) void @_ZN3aie6vectorIfLj8EEC2Ev(ptr nonnull align 32 dereferenceable(32) %custom_type.tmp) #24, !dbg !1703, !noalias !1686
  %1 = load %"class.aie::vector", ptr %custom_type.tmp, align 32, !dbg !1703, !tbaa !1704, !noalias !1686
  store %"class.aie::vector" %1, ptr %dataA, align 32, !dbg !1703, !tbaa !1704, !noalias !1686
  store ptr undef, ptr %inPtrA, align 4, !dbg !1708, !noalias !1686
  call addrspace(1) void @llvm.lifetime.start.p0(i64 4, ptr %inPtrA) #22, !dbg !1708, !noalias !1686
  call addrspace(1) void @llvm.dbg.declare(metadata ptr %inPtrA, metadata !184, metadata !DIExpression()), !dbg !1709
  %2 = call addrspace(1) ptr @llvm.noalias.decl.p0.p0.i32(ptr %inPtrA, i32 0, metadata !1710), !dbg !1708, !noalias !1686
  store %"class.aie::vector" undef, ptr %dataB, align 32, !dbg !1711, !noalias !1686
  call addrspace(1) void @llvm.lifetime.start.p0(i64 32, ptr %dataB) #22, !dbg !1711, !noalias !1686
  call addrspace(1) void @llvm.dbg.declare(metadata ptr %dataB, metadata !186, metadata !DIExpression()), !dbg !1712
  call addrspace(1) void @_ZN3aie6vectorIfLj8EEC2Ev(ptr nonnull align 32 dereferenceable(32) %custom_type.tmp2) #24, !dbg !1712, !noalias !1686
  %3 = load %"class.aie::vector", ptr %custom_type.tmp2, align 32, !dbg !1712, !tbaa !1704, !noalias !1686
  store %"class.aie::vector" %3, ptr %dataB, align 32, !dbg !1712, !tbaa !1704, !noalias !1686
  store ptr undef, ptr %inPtrB, align 4, !dbg !1713, !noalias !1686
  call addrspace(1) void @llvm.lifetime.start.p0(i64 4, ptr %inPtrB) #22, !dbg !1713, !noalias !1686
  call addrspace(1) void @llvm.dbg.declare(metadata ptr %inPtrB, metadata !369, metadata !DIExpression()), !dbg !1714
  %4 = call addrspace(1) ptr @llvm.noalias.decl.p0.p0.i32(ptr %inPtrB, i32 0, metadata !1715), !dbg !1713, !noalias !1686
  store %"class.aie::accum" undef, ptr %acc, align 32, !dbg !1716, !noalias !1686
  call addrspace(1) void @llvm.lifetime.start.p0(i64 32, ptr %acc) #22, !dbg !1716, !noalias !1686
  call addrspace(1) void @llvm.dbg.declare(metadata ptr %acc, metadata !372, metadata !DIExpression()), !dbg !1717
  call addrspace(1) void @_ZN3aie5accumI8accfloatLj8EEC2Ev(ptr nonnull align 32 dereferenceable(32) %custom_type.tmp3) #24, !dbg !1717, !noalias !1686
  %5 = load %"class.aie::accum", ptr %custom_type.tmp3, align 32, !dbg !1717, !tbaa !1718, !noalias !1686
  store %"class.aie::accum" %5, ptr %acc, align 32, !dbg !1717, !tbaa !1718, !noalias !1686
  store %"class.aie::vector" undef, ptr %blankVect, align 32, !dbg !1722, !noalias !1686
  call addrspace(1) void @llvm.lifetime.start.p0(i64 32, ptr %blankVect) #22, !dbg !1722, !noalias !1686
  call addrspace(1) void @llvm.dbg.declare(metadata ptr %blankVect, metadata !460, metadata !DIExpression()), !dbg !1723
  %call = call addrspace(1) %"class.aie::vector" @_ZN3aie5zerosIfLj8EEENS_6vectorIT_XT0_EEEv() #24, !dbg !1724, !noalias !1686
  %6 = getelementptr inbounds %"class.aie::vector", ptr %blankVect, i32 0, i32 0, !dbg !1724
  %7 = extractvalue %"class.aie::vector" %call, 0, !dbg !1724
  store %"class.aie::detail::vector_base" %7, ptr %6, align 32, !dbg !1724, !noalias !1686
  store %"class.aie::vector" undef, ptr %outVect, align 32, !dbg !1725, !noalias !1686
  call addrspace(1) void @llvm.lifetime.start.p0(i64 32, ptr %outVect) #22, !dbg !1725, !noalias !1686
  call addrspace(1) void @llvm.dbg.declare(metadata ptr %outVect, metadata !462, metadata !DIExpression()), !dbg !1726
  call addrspace(1) void @_ZN3aie6vectorIfLj8EEC2Ev(ptr nonnull align 32 dereferenceable(32) %custom_type.tmp4) #24, !dbg !1726, !noalias !1686
  %8 = load %"class.aie::vector", ptr %custom_type.tmp4, align 32, !dbg !1726, !tbaa !1704, !noalias !1686
  store %"class.aie::vector" %8, ptr %outVect, align 32, !dbg !1726, !tbaa !1704, !noalias !1686
  store ptr undef, ptr %inMatrixBuff, align 4, !dbg !1727, !noalias !1686
  call addrspace(1) void @llvm.lifetime.start.p0(i64 4, ptr %inMatrixBuff) #22, !dbg !1727, !noalias !1686
  call addrspace(1) void @llvm.dbg.declare(metadata ptr %inMatrixBuff, metadata !463, metadata !DIExpression()), !dbg !1728
  %9 = call addrspace(1) ptr @llvm.noalias.decl.p0.p0.i32(ptr %inMatrixBuff, i32 0, metadata !1729), !dbg !1727, !noalias !1686
  %inWindowA = getelementptr inbounds %"struct.xf::dsp::aie::blas::matrix_vector_mul::T_inputIF", ptr %inInterface, i32 0, i32 0, !dbg !1730
  %10 = load ptr, ptr %inWindowA, align 4, !dbg !1730, !tbaa !1731, !noalias !1686
  %11 = call addrspace(1) ptr @llvm.noalias.p0.p0.p0.i32(ptr %10, ptr null, ptr %inWindowA, i32 0, metadata !1683), !dbg !1730, !tbaa !1731, !noalias !1686
  %12 = call addrspace(1) ptr @llvm.chess.copy.p0(ptr %11), !dbg !1728
  store ptr %12, ptr %inMatrixBuff, align 4, !dbg !1728, !tbaa !1542, !noalias !1686
  store ptr undef, ptr %inMatrixPtrRtp, align 4, !dbg !1732, !noalias !1686
  call addrspace(1) void @llvm.lifetime.start.p0(i64 4, ptr %inMatrixPtrRtp) #22, !dbg !1732, !noalias !1686
  call addrspace(1) void @llvm.dbg.declare(metadata ptr %inMatrixPtrRtp, metadata !464, metadata !DIExpression()), !dbg !1733
  %13 = call addrspace(1) ptr @llvm.noalias.decl.p0.p0.i32(ptr %inMatrixPtrRtp, i32 0, metadata !1734), !dbg !1732, !noalias !1686
  %m_inMatrixPtr = getelementptr inbounds %"class.xf::dsp::aie::blas::matrix_vector_mul::kernelMatVecMulClass", ptr %this1, i32 0, i32 0, !dbg !1735
  %14 = load ptr, ptr %m_inMatrixPtr, align 4, !dbg !1735, !tbaa !1580, !noalias !1686
  %15 = call addrspace(1) ptr @llvm.noalias.p0.p0.p0.i32(ptr %14, ptr null, ptr %m_inMatrixPtr, i32 0, metadata !1683), !dbg !1735, !tbaa !1580, !noalias !1686
  %16 = call addrspace(1) ptr @llvm.chess.copy.p0(ptr %15), !dbg !1733
  store ptr %16, ptr %inMatrixPtrRtp, align 4, !dbg !1733, !tbaa !1542, !noalias !1686
  store ptr undef, ptr %matrixPtr, align 4, !dbg !1736, !noalias !1686
  call addrspace(1) void @llvm.lifetime.start.p0(i64 4, ptr %matrixPtr) #22, !dbg !1736, !noalias !1686
  call addrspace(1) void @llvm.dbg.declare(metadata ptr %matrixPtr, metadata !465, metadata !DIExpression()), !dbg !1737
  %17 = call addrspace(1) ptr @llvm.noalias.decl.p0.p0.i32(ptr %matrixPtr, i32 0, metadata !1738), !dbg !1736, !noalias !1686
  %18 = load ptr, ptr %inMatrixPtrRtp, align 4, !dbg !1739, !tbaa !1542, !noalias !1686
  %19 = call addrspace(1) ptr @llvm.noalias.p0.p0.p0.i32(ptr %18, ptr %13, ptr %inMatrixPtrRtp, i32 0, metadata !1734), !dbg !1739, !tbaa !1542, !noalias !1686
  %20 = call addrspace(1) ptr @llvm.chess.copy.p0(ptr %19), !dbg !1737
  store ptr %20, ptr %matrixPtr, align 4, !dbg !1737, !tbaa !1542, !noalias !1686
  store ptr undef, ptr %matrixStartPtr, align 4, !dbg !1740, !noalias !1686
  call addrspace(1) void @llvm.lifetime.start.p0(i64 4, ptr %matrixStartPtr) #22, !dbg !1740, !noalias !1686
  call addrspace(1) void @llvm.dbg.declare(metadata ptr %matrixStartPtr, metadata !466, metadata !DIExpression()), !dbg !1741
  %21 = call addrspace(1) ptr @llvm.noalias.decl.p0.p0.i32(ptr %matrixStartPtr, i32 0, metadata !1742), !dbg !1740, !noalias !1686
  %22 = load ptr, ptr %matrixPtr, align 4, !dbg !1743, !tbaa !1542, !noalias !1686
  %23 = call addrspace(1) ptr @llvm.noalias.p0.p0.p0.i32(ptr %22, ptr %17, ptr %matrixPtr, i32 0, metadata !1738), !dbg !1743, !tbaa !1542, !noalias !1686
  %24 = call addrspace(1) ptr @llvm.chess.copy.p0(ptr %23), !dbg !1741
  store ptr %24, ptr %matrixStartPtr, align 4, !dbg !1741, !tbaa !1542, !noalias !1686
  store ptr undef, ptr %vectorStartPtr, align 4, !dbg !1744, !noalias !1686
  call addrspace(1) void @llvm.lifetime.start.p0(i64 4, ptr %vectorStartPtr) #22, !dbg !1744, !noalias !1686
  call addrspace(1) void @llvm.dbg.declare(metadata ptr %vectorStartPtr, metadata !467, metadata !DIExpression()), !dbg !1745
  %25 = call addrspace(1) ptr @llvm.noalias.decl.p0.p0.i32(ptr %vectorStartPtr, i32 0, metadata !1746), !dbg !1744, !noalias !1686
  %inWindowB = getelementptr inbounds %"struct.xf::dsp::aie::blas::matrix_vector_mul::T_inputIF", ptr %inInterface, i32 0, i32 1, !dbg !1747
  %26 = load ptr, ptr %inWindowB, align 4, !dbg !1747, !tbaa !1566, !noalias !1686
  %27 = call addrspace(1) ptr @llvm.noalias.p0.p0.p0.i32(ptr %26, ptr null, ptr %inWindowB, i32 0, metadata !1683), !dbg !1747, !tbaa !1566, !noalias !1686
  %28 = call addrspace(1) ptr @llvm.chess.copy.p0(ptr %27), !dbg !1745
  store ptr %28, ptr %vectorStartPtr, align 4, !dbg !1745, !tbaa !1542, !noalias !1686
  store ptr undef, ptr %outPtr, align 4, !dbg !1748, !noalias !1686
  call addrspace(1) void @llvm.lifetime.start.p0(i64 4, ptr %outPtr) #22, !dbg !1748, !noalias !1686
  call addrspace(1) void @llvm.dbg.declare(metadata ptr %outPtr, metadata !468, metadata !DIExpression()), !dbg !1749
  %29 = call addrspace(1) ptr @llvm.noalias.decl.p0.p0.i32(ptr %outPtr, i32 0, metadata !1750), !dbg !1748, !noalias !1686
  %outWindow = getelementptr inbounds %"struct.xf::dsp::aie::blas::matrix_vector_mul::T_outputIF", ptr %outInterface, i32 0, i32 0, !dbg !1751
  %30 = load ptr, ptr %outWindow, align 4, !dbg !1751, !tbaa !1752, !noalias !1686
  %31 = call addrspace(1) ptr @llvm.noalias.p0.p0.p0.i32(ptr %30, ptr %0, ptr %outWindow, i32 0, metadata !1698), !dbg !1751, !tbaa !1752, !noalias !1686
  %32 = call addrspace(1) ptr @llvm.chess.copy.p0(ptr %31), !dbg !1749
  store ptr %32, ptr %outPtr, align 4, !dbg !1749, !tbaa !1542, !noalias !1686
  store i32 undef, ptr %frame, align 4, !dbg !1753, !noalias !1686
  call addrspace(1) void @llvm.lifetime.start.p0(i64 4, ptr %frame) #22, !dbg !1753, !noalias !1686
  call addrspace(1) void @llvm.dbg.declare(metadata ptr %frame, metadata !472, metadata !DIExpression()), !dbg !1754
  store i32 0, ptr %frame, align 4, !dbg !1754, !tbaa !1755, !noalias !1686
  br label %for.cond, !dbg !1753

for.cond:                                         ; preds = %for.inc33, %entry
  %33 = load i32, ptr %frame, align 4, !dbg !1757, !tbaa !1755, !noalias !1686
  %cmp = icmp ult i32 %33, 1, !dbg !1758
  br i1 %cmp, label %for.body, label %for.cond.cleanup, !dbg !1759

for.cond.cleanup:                                 ; preds = %for.cond
  store i32 2, ptr %cleanup.dest.slot, align 4
  call addrspace(1) void @llvm.lifetime.end.p0(i64 4, ptr %frame) #22, !dbg !1760, !noalias !1686
  br label %for.end35

for.body:                                         ; preds = %for.cond
  store i32 undef, ptr %idx, align 4, !dbg !1761, !noalias !1686
  call addrspace(1) void @llvm.lifetime.start.p0(i64 4, ptr %idx) #22, !dbg !1761, !noalias !1686
  call addrspace(1) void @llvm.dbg.declare(metadata ptr %idx, metadata !474, metadata !DIExpression()), !dbg !1762
  store i32 0, ptr %idx, align 4, !dbg !1762, !tbaa !1755, !noalias !1686
  br label %for.pre_assume, !dbg !1761

for.pre_assume:                                   ; preds = %for.body
  %34 = load i32, ptr %idx, align 4, !dbg !1763, !tbaa !1755, !noalias !1686
  %cmp7 = icmp slt i32 %34, 16, !dbg !1764
  call addrspace(1) void @llvm.assume(i1 %cmp7), !dbg !1765, !noalias !1686
  br label %for.body9, !dbg !1765

for.cond5:                                        ; preds = %for.inc30
  %35 = load i32, ptr %idx, align 4, !dbg !1763, !tbaa !1755, !noalias !1686
  %cmp6 = icmp slt i32 %35, 16, !dbg !1764
  br i1 %cmp6, label %for.body9, label %for.cond.cleanup8, !dbg !1765, !llvm.loop !1766

for.cond.cleanup8:                                ; preds = %for.cond5
  store i32 5, ptr %cleanup.dest.slot, align 4
  call addrspace(1) void @llvm.lifetime.end.p0(i64 4, ptr %idx) #22, !dbg !1773, !noalias !1686
  br label %for.end32

for.body9:                                        ; preds = %for.cond5, %for.pre_assume
  %36 = load ptr, ptr %matrixStartPtr, align 4, !dbg !1774, !tbaa !1542, !noalias !1686
  %37 = call addrspace(1) ptr @llvm.noalias.p0.p0.p0.i32(ptr %36, ptr %21, ptr %matrixStartPtr, i32 0, metadata !1742), !dbg !1774, !tbaa !1542, !noalias !1686
  %38 = load i32, ptr %frame, align 4, !dbg !1775, !tbaa !1755, !noalias !1686
  %mul = mul nsw i32 %38, 1024, !dbg !1776
  %add.ptr = getelementptr inbounds %"class.aie::vector", ptr %37, i32 %mul, !dbg !1777
  %39 = load i32, ptr %idx, align 4, !dbg !1778, !tbaa !1755, !noalias !1686
  %add.ptr10 = getelementptr inbounds %"class.aie::vector", ptr %add.ptr, i32 %39, !dbg !1779
  store ptr %add.ptr10, ptr %inPtrA, align 4, !dbg !1780, !tbaa !1542, !noalias !1686
  %40 = load ptr, ptr %vectorStartPtr, align 4, !dbg !1781, !tbaa !1542, !noalias !1686
  %41 = call addrspace(1) ptr @llvm.noalias.p0.p0.p0.i32(ptr %40, ptr %25, ptr %vectorStartPtr, i32 0, metadata !1746), !dbg !1781, !tbaa !1542, !noalias !1686
  %42 = load i32, ptr %frame, align 4, !dbg !1782, !tbaa !1755, !noalias !1686
  %mul11 = mul nsw i32 %42, 8, !dbg !1783
  %add.ptr12 = getelementptr inbounds %"class.aie::vector", ptr %41, i32 %mul11, !dbg !1784
  store ptr %add.ptr12, ptr %inPtrB, align 4, !dbg !1785, !tbaa !1542, !noalias !1686
  %inCascade = getelementptr inbounds %"struct.xf::dsp::aie::blas::matrix_vector_mul::T_inputIF", ptr %inInterface, i32 0, i32 4, !dbg !1786
  %43 = load ptr, ptr %inCascade, align 4, !dbg !1786, !tbaa !1571, !noalias !1686
  %call13 = call addrspace(1) %"class.aie::accum" @_Z10readincr_vILj8E8accfloatEN3aie5accumIT0_XT_EEEP13input_cascadeIS3_vE(ptr %43) #24, !dbg !1789, !noalias !1686
  %44 = getelementptr inbounds %"class.aie::accum", ptr %agg.tmp, i32 0, i32 0, !dbg !1789
  %45 = extractvalue %"class.aie::accum" %call13, 0, !dbg !1789
  store %"class.aie::detail::accum_base" %45, ptr %44, align 32, !dbg !1789, !noalias !1686
  %46 = load %"class.aie::accum", ptr %agg.tmp, align 32, !dbg !1790, !tbaa !1718, !noalias !1686
  store %"class.aie::accum" %46, ptr %acc, align 32, !dbg !1790, !tbaa !1718, !noalias !1686
  store i32 undef, ptr %vecInB, align 4, !dbg !1791, !noalias !1686
  call addrspace(1) void @llvm.lifetime.start.p0(i64 4, ptr %vecInB) #22, !dbg !1791, !noalias !1686
  call addrspace(1) void @llvm.dbg.declare(metadata ptr %vecInB, metadata !478, metadata !DIExpression()), !dbg !1792
  store i32 0, ptr %vecInB, align 4, !dbg !1792, !tbaa !1755, !noalias !1686
  br label %for.cond14, !dbg !1791

for.cond14:                                       ; preds = %for.inc27, %for.body9
  %47 = load i32, ptr %vecInB, align 4, !dbg !1793, !tbaa !1755, !noalias !1686
  %cmp15 = icmp slt i32 %47, 8, !dbg !1794
  br i1 %cmp15, label %for.body17, label %for.cond.cleanup16, !dbg !1795

for.cond.cleanup16:                               ; preds = %for.cond14
  store i32 8, ptr %cleanup.dest.slot, align 4
  call addrspace(1) void @llvm.lifetime.end.p0(i64 4, ptr %vecInB) #22, !dbg !1796, !noalias !1686
  br label %for.end29

for.body17:                                       ; preds = %for.cond14
  %48 = load ptr, ptr %inPtrB, align 4, !dbg !1797, !tbaa !1542, !noalias !1686
  %49 = call addrspace(1) ptr @llvm.noalias.p0.p0.p0.i32(ptr %48, ptr %4, ptr %inPtrB, i32 0, metadata !1715), !dbg !1797, !tbaa !1542, !noalias !1686
  %incdec.ptr = getelementptr inbounds %"class.aie::vector", ptr %49, i32 1, !dbg !1797
  store ptr %incdec.ptr, ptr %inPtrB, align 4, !dbg !1797, !tbaa !1542, !noalias !1686
  %50 = load %"class.aie::vector", ptr %49, align 32, !dbg !1798, !tbaa !1704, !noalias !1686
  store %"class.aie::vector" %50, ptr %dataB, align 32, !dbg !1798, !tbaa !1704, !noalias !1686
  store i32 undef, ptr %jdx, align 4, !dbg !1799, !noalias !1686
  call addrspace(1) void @llvm.lifetime.start.p0(i64 4, ptr %jdx) #22, !dbg !1799, !noalias !1686
  call addrspace(1) void @llvm.dbg.declare(metadata ptr %jdx, metadata !482, metadata !DIExpression()), !dbg !1800
  store i32 0, ptr %jdx, align 4, !dbg !1800, !tbaa !1755, !noalias !1686
  br label %for.cond18, !dbg !1799

for.cond18:                                       ; preds = %for.inc, %for.body17
  %51 = load i32, ptr %jdx, align 4, !dbg !1801, !tbaa !1755, !noalias !1686
  %cmp19 = icmp slt i32 %51, 8, !dbg !1803
  br i1 %cmp19, label %for.body21, label %for.cond.cleanup20, !dbg !1804

for.cond.cleanup20:                               ; preds = %for.cond18
  store i32 11, ptr %cleanup.dest.slot, align 4
  call addrspace(1) void @llvm.lifetime.end.p0(i64 4, ptr %jdx) #22, !dbg !1805, !noalias !1686
  br label %for.end

for.body21:                                       ; preds = %for.cond18
  %52 = load ptr, ptr %inPtrA, align 4, !dbg !1806, !tbaa !1542, !noalias !1686
  %53 = call addrspace(1) ptr @llvm.noalias.p0.p0.p0.i32(ptr %52, ptr %2, ptr %inPtrA, i32 0, metadata !1710), !dbg !1806, !tbaa !1542, !noalias !1686
  %54 = load %"class.aie::vector", ptr %53, align 32, !dbg !1808, !tbaa !1704, !noalias !1686
  store %"class.aie::vector" %54, ptr %dataA, align 32, !dbg !1808, !tbaa !1704, !noalias !1686
  %55 = load ptr, ptr %inPtrA, align 4, !dbg !1809, !tbaa !1542, !noalias !1686
  %56 = call addrspace(1) ptr @llvm.noalias.p0.p0.p0.i32(ptr %55, ptr %2, ptr %inPtrA, i32 0, metadata !1710), !dbg !1809, !tbaa !1542, !noalias !1686
  %add.ptr22 = getelementptr inbounds %"class.aie::vector", ptr %56, i32 16, !dbg !1809
  store ptr %add.ptr22, ptr %inPtrA, align 4, !dbg !1809, !tbaa !1542, !noalias !1686
  %57 = load i32, ptr %jdx, align 4, !dbg !1810, !tbaa !1755, !noalias !1686
  %call24 = call addrspace(1) %"class.aie::vector_elem_ref" @_ZN3aie6vectorIfLj8EEixEj(ptr nonnull align 32 dereferenceable(32) %dataB, i32 %57) #24, !dbg !1813, !noalias !1686
  %58 = getelementptr inbounds %"class.aie::vector_elem_ref", ptr %agg.tmp23, i32 0, i32 0, !dbg !1813
  %59 = extractvalue %"class.aie::vector_elem_ref" %call24, 0, !dbg !1813
  store ptr %59, ptr %58, align 4, !dbg !1813, !noalias !1686
  %60 = getelementptr inbounds %"class.aie::vector_elem_ref", ptr %agg.tmp23, i32 0, i32 1, !dbg !1813
  %61 = extractvalue %"class.aie::vector_elem_ref" %call24, 1, !dbg !1813
  store i32 %61, ptr %60, align 4, !dbg !1813, !noalias !1686
  %62 = load %"class.aie::vector_elem_ref", ptr %agg.tmp23, align 4, !dbg !1814, !tbaa !1815, !noalias !1686
  %call25 = call addrspace(1) %"class.aie::accum" @_ZN3aie3macINS_5accumI8accfloatLj8EEENS_15vector_elem_refIfLj8EEENS_6vectorIfLj8EEEEENS_17operand_base_typeINS_6detail5utils10remove_allIT_E4typeEE4typeERKSC_T0_RKT1_(ptr nonnull align 32 dereferenceable(32) %acc, %"class.aie::vector_elem_ref" %62, ptr nonnull align 32 dereferenceable(32) %dataA) #24, !dbg !1814, !noalias !1686
  %63 = getelementptr inbounds %"class.aie::accum", ptr %agg.tmp26, i32 0, i32 0, !dbg !1814
  %64 = extractvalue %"class.aie::accum" %call25, 0, !dbg !1814
  store %"class.aie::detail::accum_base" %64, ptr %63, align 32, !dbg !1814, !noalias !1686
  %65 = load %"class.aie::accum", ptr %agg.tmp26, align 32, !dbg !1817, !tbaa !1718, !noalias !1686
  store %"class.aie::accum" %65, ptr %acc, align 32, !dbg !1817, !tbaa !1718, !noalias !1686
  br label %for.inc, !dbg !1818

for.inc:                                          ; preds = %for.body21
  %66 = load i32, ptr %jdx, align 4, !dbg !1819, !tbaa !1755, !noalias !1686
  %inc = add nsw i32 %66, 1, !dbg !1819
  store i32 %inc, ptr %jdx, align 4, !dbg !1819, !tbaa !1755, !noalias !1686
  br label %for.cond18, !dbg !1805, !llvm.loop !1820

for.end:                                          ; preds = %for.cond.cleanup20
  br label %for.inc27, !dbg !1823

for.inc27:                                        ; preds = %for.end
  %67 = load i32, ptr %vecInB, align 4, !dbg !1824, !tbaa !1755, !noalias !1686
  %inc28 = add nsw i32 %67, 1, !dbg !1824
  store i32 %inc28, ptr %vecInB, align 4, !dbg !1824, !tbaa !1755, !noalias !1686
  br label %for.cond14, !dbg !1796, !llvm.loop !1825

for.end29:                                        ; preds = %for.cond.cleanup16
  %outCascade = getelementptr inbounds %"struct.xf::dsp::aie::blas::matrix_vector_mul::T_outputIF", ptr %outInterface, i32 0, i32 3, !dbg !1827
  %68 = load ptr, ptr %outCascade, align 4, !dbg !1827, !tbaa !1575, !noalias !1686
  call addrspace(1) void @_Z9writeincrI8accfloatLj8EEvP14output_cascadeIT_vERKN3aie5accumIS2_XT0_EEE(ptr %68, ptr nonnull align 32 dereferenceable(32) %acc) #24, !dbg !1830, !noalias !1686
  br label %for.inc30, !dbg !1831

for.inc30:                                        ; preds = %for.end29
  %69 = load i32, ptr %idx, align 4, !dbg !1832, !tbaa !1755, !noalias !1686
  %inc31 = add nsw i32 %69, 1, !dbg !1832
  store i32 %inc31, ptr %idx, align 4, !dbg !1832, !tbaa !1755, !noalias !1686
  br label %for.cond5, !dbg !1773, !llvm.loop !1766

for.end32:                                        ; preds = %for.cond.cleanup8
  br label %for.inc33, !dbg !1833

for.inc33:                                        ; preds = %for.end32
  %70 = load i32, ptr %frame, align 4, !dbg !1834, !tbaa !1755, !noalias !1686
  %inc34 = add nsw i32 %70, 1, !dbg !1834
  store i32 %inc34, ptr %frame, align 4, !dbg !1834, !tbaa !1755, !noalias !1686
  br label %for.cond, !dbg !1760, !llvm.loop !1835

for.end35:                                        ; preds = %for.cond.cleanup
  call addrspace(1) void @llvm.lifetime.end.p0(i64 4, ptr %outPtr) #22, !dbg !1837
  call addrspace(1) void @llvm.lifetime.end.p0(i64 4, ptr %vectorStartPtr) #22, !dbg !1837
  call addrspace(1) void @llvm.lifetime.end.p0(i64 4, ptr %matrixStartPtr) #22, !dbg !1837
  call addrspace(1) void @llvm.lifetime.end.p0(i64 4, ptr %matrixPtr) #22, !dbg !1837
  call addrspace(1) void @llvm.lifetime.end.p0(i64 4, ptr %inMatrixPtrRtp) #22, !dbg !1837
  call addrspace(1) void @llvm.lifetime.end.p0(i64 4, ptr %inMatrixBuff) #22, !dbg !1837
  call addrspace(1) void @llvm.lifetime.end.p0(i64 32, ptr %outVect) #22, !dbg !1837
  call addrspace(1) void @llvm.lifetime.end.p0(i64 32, ptr %blankVect) #22, !dbg !1837
  call addrspace(1) void @llvm.lifetime.end.p0(i64 32, ptr %acc) #22, !dbg !1837
  call addrspace(1) void @llvm.lifetime.end.p0(i64 4, ptr %inPtrB) #22, !dbg !1837
  call addrspace(1) void @llvm.lifetime.end.p0(i64 32, ptr %dataB) #22, !dbg !1837
  call addrspace(1) void @llvm.lifetime.end.p0(i64 4, ptr %inPtrA) #22, !dbg !1837
  call addrspace(1) void @llvm.lifetime.end.p0(i64 32, ptr %dataA) #22, !dbg !1837
  ret void, !dbg !1837
}

; Function Attrs: alwaysinline mustprogress nounwind
define linkonce_odr dso_local void @_ZN2xf3dsp3aie12set_rnd_modeILj0EEEvv() addrspace(1) #6 comdat !dbg !1838 {
entry:
  call addrspace(1) void @_ZN3aieL12set_roundingENS_13rounding_modeE(i32 0) #24, !dbg !1842
  ret void, !dbg !1845
}

; Function Attrs: alwaysinline mustprogress nounwind
define linkonce_odr dso_local void @_ZN2xf3dsp3aie12set_sat_modeILj0EEEvv() addrspace(1) #6 comdat !dbg !1846 {
entry:
  call addrspace(1) void @_ZN3aieL14set_saturationENS_15saturation_modeE(i32 0) #24, !dbg !1849
  ret void, !dbg !1852
}

; Function Attrs: alwaysinline nounwind
define linkonce_odr dso_local void @_ZN3aie6vectorIfLj8EEC2Ev(ptr nonnull align 32 dereferenceable(32) %this) unnamed_addr addrspace(1) #11 comdat align 2 !dbg !1853 {
entry:
  %this.addr = alloca ptr, align 4
  store ptr %this, ptr %this.addr, align 4, !tbaa !1542
  call addrspace(1) void @llvm.dbg.declare(metadata ptr %this.addr, metadata !1855, metadata !DIExpression()), !dbg !1857
  %this1 = load ptr, ptr %this.addr, align 4
  call addrspace(1) void @_ZN3aie6detail11vector_baseIfLj8EEC2Ev(ptr nonnull align 32 dereferenceable(32) %this1) #24, !dbg !1858
  ret void, !dbg !1859
}

; Function Attrs: alwaysinline nounwind
define linkonce_odr dso_local void @_ZN3aie5accumI8accfloatLj8EEC2Ev(ptr nonnull align 32 dereferenceable(32) %this) unnamed_addr addrspace(1) #11 comdat align 2 !dbg !1860 {
entry:
  %this.addr = alloca ptr, align 4
  store ptr %this, ptr %this.addr, align 4, !tbaa !1542
  call addrspace(1) void @llvm.dbg.declare(metadata ptr %this.addr, metadata !1862, metadata !DIExpression()), !dbg !1864
  %this1 = load ptr, ptr %this.addr, align 4
  call addrspace(1) void @_ZN3aie6detail10accum_baseILNS0_10AccumClassE2ELj32ELj8EEC2Ev(ptr nonnull align 32 dereferenceable(32) %this1) #24, !dbg !1865
  ret void, !dbg !1866
}

; Function Attrs: alwaysinline mustprogress nounwind
define linkonce_odr dso_local %"class.aie::vector" @_ZN3aie5zerosIfLj8EEENS_6vectorIT_XT0_EEEv() addrspace(1) #6 comdat !dbg !1867 {
entry:
  %retval = alloca %"class.aie::vector", align 32
  %call = call addrspace(1) %"class.aie::vector" @_ZN3aie6detail10zeros_bitsILj32EfLj8EE3runEv() #24, !dbg !1870
  %0 = getelementptr inbounds %"class.aie::vector", ptr %retval, i32 0, i32 0, !dbg !1870
  %1 = extractvalue %"class.aie::vector" %call, 0, !dbg !1870
  store %"class.aie::detail::vector_base" %1, ptr %0, align 32, !dbg !1870
  %2 = load %"class.aie::vector", ptr %retval, align 32, !dbg !1871
  ret %"class.aie::vector" %2, !dbg !1871
}

; Function Attrs: nocse nounwind willreturn memory(none)
declare ptr @llvm.chess.copy.p0(ptr) addrspace(1) #12

; Function Attrs: nocallback nofree nosync nounwind willreturn memory(inaccessiblemem: readwrite)
declare void @llvm.assume(i1 noundef) addrspace(1) #13

; Function Attrs: alwaysinline mustprogress nounwind
define linkonce_odr dso_local %"class.aie::accum" @_Z10readincr_vILj8E8accfloatEN3aie5accumIT0_XT_EEEP13input_cascadeIS3_vE(ptr %w) addrspace(1) #6 comdat !dbg !1872 {
entry:
  %retval = alloca %"class.aie::accum", align 32
  %w.addr = alloca ptr, align 4
  store ptr %w, ptr %w.addr, align 4, !tbaa !1542
  call addrspace(1) void @llvm.dbg.declare(metadata ptr %w.addr, metadata !1876, metadata !DIExpression()), !dbg !1879
  %0 = load ptr, ptr %w.addr, align 4, !dbg !1880, !tbaa !1542
  %call = call addrspace(1) %"class.aie::accum" @_ZN3aie6detail3adf21cascade_stream_helperI8accfloatLj8EE8readincrEP13input_cascadeIS3_vE(ptr %0) #24, !dbg !1881
  %1 = getelementptr inbounds %"class.aie::accum", ptr %retval, i32 0, i32 0, !dbg !1881
  %2 = extractvalue %"class.aie::accum" %call, 0, !dbg !1881
  store %"class.aie::detail::accum_base" %2, ptr %1, align 32, !dbg !1881
  %3 = load %"class.aie::accum", ptr %retval, align 32, !dbg !1882
  ret %"class.aie::accum" %3, !dbg !1882
}

; Function Attrs: alwaysinline mustprogress nounwind
define linkonce_odr dso_local %"class.aie::accum" @_ZN3aie3macINS_5accumI8accfloatLj8EEENS_15vector_elem_refIfLj8EEENS_6vectorIfLj8EEEEENS_17operand_base_typeINS_6detail5utils10remove_allIT_E4typeEE4typeERKSC_T0_RKT1_(ptr nonnull align 32 dereferenceable(32) %acc, %"class.aie::vector_elem_ref" %a.coerce, ptr nonnull align 32 dereferenceable(32) %v) addrspace(1) #6 comdat !dbg !1883 {
entry:
  %retval = alloca %"class.aie::accum", align 32
  %a = alloca %"class.aie::vector_elem_ref", align 4
  %acc.addr = alloca ptr, align 4
  %v.addr = alloca ptr, align 4
  %ref.tmp = alloca %"struct.aie::unary_op", align 32
  %agg.tmp = alloca %"class.aie::vector_elem_ref", align 4
  store %"class.aie::vector_elem_ref" %a.coerce, ptr %a, align 4
  store ptr %acc, ptr %acc.addr, align 4, !tbaa !1542
  call addrspace(1) void @llvm.dbg.declare(metadata ptr %acc.addr, metadata !1891, metadata !DIExpression()), !dbg !1898
  call addrspace(1) void @llvm.dbg.declare(metadata ptr %a, metadata !1892, metadata !DIExpression()), !dbg !1899
  store ptr %v, ptr %v.addr, align 4, !tbaa !1542
  call addrspace(1) void @llvm.dbg.declare(metadata ptr %v.addr, metadata !1893, metadata !DIExpression()), !dbg !1900
  call addrspace(1) void @llvm.lifetime.start.p0(i64 32, ptr %ref.tmp) #22, !dbg !1901
  %0 = load ptr, ptr %acc.addr, align 4, !dbg !1904, !tbaa !1542
  %call = call addrspace(1) %"struct.aie::unary_op" @_ZN3aie6op_addINS_5accumI8accfloatLj8EEEEENS_8unary_opIT_LNS_9OperationE1EEERKS5_(ptr nonnull align 32 dereferenceable(32) %0) #24, !dbg !1901
  %1 = getelementptr inbounds %"struct.aie::unary_op", ptr %ref.tmp, i32 0, i32 0, !dbg !1901
  %2 = extractvalue %"struct.aie::unary_op" %call, 0, !dbg !1901
  store %"struct.aie::unary_op_common" %2, ptr %1, align 32, !dbg !1901
  %3 = load %"class.aie::vector_elem_ref", ptr %a, align 4, !dbg !1905, !tbaa !1815
  store %"class.aie::vector_elem_ref" %3, ptr %agg.tmp, align 4, !dbg !1905, !tbaa !1815
  %4 = load ptr, ptr %v.addr, align 4, !dbg !1906, !tbaa !1542
  %5 = load %"class.aie::vector_elem_ref", ptr %agg.tmp, align 4, !dbg !1907, !tbaa !1815
  %call1 = call addrspace(1) %"class.aie::accum" @_ZN3aie3macINS_8unary_opINS_5accumI8accfloatLj8EEELNS_9OperationE1EEENS_15vector_elem_refIfLj8EEENS_6vectorIfLj8EEEEENS_17operand_base_typeINS_6detail5utils10remove_allIT_E4typeEE4typeERKSF_T0_RKT1_(ptr nonnull align 32 dereferenceable(32) %ref.tmp, %"class.aie::vector_elem_ref" %5, ptr nonnull align 32 dereferenceable(32) %4) #24, !dbg !1907
  %6 = getelementptr inbounds %"class.aie::accum", ptr %retval, i32 0, i32 0, !dbg !1907
  %7 = extractvalue %"class.aie::accum" %call1, 0, !dbg !1907
  store %"class.aie::detail::accum_base" %7, ptr %6, align 32, !dbg !1907
  call addrspace(1) void @llvm.lifetime.end.p0(i64 32, ptr %ref.tmp) #22, !dbg !1908
  %8 = load %"class.aie::accum", ptr %retval, align 32, !dbg !1908
  ret %"class.aie::accum" %8, !dbg !1908
}

; Function Attrs: alwaysinline mustprogress nounwind
define linkonce_odr dso_local %"class.aie::vector_elem_ref" @_ZN3aie6vectorIfLj8EEixEj(ptr nonnull align 32 dereferenceable(32) %this, i32 %idx) addrspace(1) #6 comdat align 2 !dbg !1909 {
entry:
  %retval = alloca %"class.aie::vector_elem_ref", align 4
  %this.addr = alloca ptr, align 4
  %idx.addr = alloca i32, align 4
  store ptr %this, ptr %this.addr, align 4, !tbaa !1542
  call addrspace(1) void @llvm.dbg.declare(metadata ptr %this.addr, metadata !1911, metadata !DIExpression()), !dbg !1913
  store i32 %idx, ptr %idx.addr, align 4, !tbaa !1755
  call addrspace(1) void @llvm.dbg.declare(metadata ptr %idx.addr, metadata !1912, metadata !DIExpression()), !dbg !1914
  %this1 = load ptr, ptr %this.addr, align 4
  br label %do.body, !dbg !1915

do.body:                                          ; preds = %entry
  %0 = load i32, ptr %idx.addr, align 4, !dbg !1916, !tbaa !1755
  %cmp = icmp ult i32 %0, 8, !dbg !1916
  %1 = call addrspace(1) i1 @llvm.is.constant.i1(i1 %cmp), !dbg !1916
  br i1 %1, label %if.then, label %if.else, !dbg !1919

if.then:                                          ; preds = %do.body
  br label %do.body2, !dbg !1920

do.body2:                                         ; preds = %if.then
  %2 = load i32, ptr %idx.addr, align 4, !dbg !1922, !tbaa !1755
  %cmp3 = icmp ult i32 %2, 8, !dbg !1922
  %3 = call addrspace(1) i1 @llvm.chess_manifest(i1 %cmp3), !dbg !1922
  br i1 %3, label %if.end, label %if.then4, !dbg !1925

if.then4:                                         ; preds = %do.body2
  call addrspace(1) void @llvm.chess_error(metadata !1926), !dbg !1922
  br label %if.end, !dbg !1922

if.end:                                           ; preds = %if.then4, %do.body2
  br label %do.end, !dbg !1925

do.end:                                           ; preds = %if.end
  br label %if.end6, !dbg !1920

if.else:                                          ; preds = %do.body
  %4 = load i32, ptr %idx.addr, align 4, !dbg !1927, !tbaa !1755
  %cmp5 = icmp ult i32 %4, 8, !dbg !1927
  call addrspace(1) void @llvm.assume(i1 %cmp5), !dbg !1927
  br label %if.end6

if.end6:                                          ; preds = %if.else, %do.end
  br label %do.end7, !dbg !1919

do.end7:                                          ; preds = %if.end6
  %5 = load i32, ptr %idx.addr, align 4, !dbg !1929, !tbaa !1755
  %call = call addrspace(1) %"class.aie::vector_elem_ref" @_ZN3aie6vectorIfLj8EE8elem_refEj(ptr nonnull align 32 dereferenceable(32) %this1, i32 %5) #24, !dbg !1930
  %6 = getelementptr inbounds %"class.aie::vector_elem_ref", ptr %retval, i32 0, i32 0, !dbg !1930
  %7 = extractvalue %"class.aie::vector_elem_ref" %call, 0, !dbg !1930
  store ptr %7, ptr %6, align 4, !dbg !1930
  %8 = getelementptr inbounds %"class.aie::vector_elem_ref", ptr %retval, i32 0, i32 1, !dbg !1930
  %9 = extractvalue %"class.aie::vector_elem_ref" %call, 1, !dbg !1930
  store i32 %9, ptr %8, align 4, !dbg !1930
  %10 = load %"class.aie::vector_elem_ref", ptr %retval, align 4, !dbg !1931
  ret %"class.aie::vector_elem_ref" %10, !dbg !1931
}

; Function Attrs: alwaysinline mustprogress nounwind
define linkonce_odr dso_local void @_Z9writeincrI8accfloatLj8EEvP14output_cascadeIT_vERKN3aie5accumIS2_XT0_EEE(ptr %w, ptr nonnull align 32 dereferenceable(32) %value) addrspace(1) #6 comdat !dbg !1932 {
entry:
  %w.addr = alloca ptr, align 4
  %value.addr = alloca ptr, align 4
  store ptr %w, ptr %w.addr, align 4, !tbaa !1542
  call addrspace(1) void @llvm.dbg.declare(metadata ptr %w.addr, metadata !1936, metadata !DIExpression()), !dbg !1939
  store ptr %value, ptr %value.addr, align 4, !tbaa !1542
  call addrspace(1) void @llvm.dbg.declare(metadata ptr %value.addr, metadata !1937, metadata !DIExpression()), !dbg !1940
  %0 = load ptr, ptr %w.addr, align 4, !dbg !1941, !tbaa !1542
  %1 = load ptr, ptr %value.addr, align 4, !dbg !1942, !tbaa !1542
  %2 = load %"class.aie::accum", ptr %1, align 32, !dbg !1943, !tbaa !1718
  call addrspace(1) void @_ZN3aie6detail3adf21cascade_stream_helperI8accfloatLj8EE9writeincrEP14output_cascadeIS3_vENS_5accumIS3_Lj8EEE(ptr %0, %"class.aie::accum" %2) #24, !dbg !1943
  ret void, !dbg !1944
}

; Function Attrs: alwaysinline mustprogress nounwind
define internal void @_ZN3aieL12set_roundingENS_13rounding_modeE(i32 %m) addrspace(1) #6 !dbg !1945 {
entry:
  %m.addr = alloca i32, align 4
  %ref.tmp = alloca %"class.aie::tile", align 1
  %undef.agg.tmp = alloca %"class.aie::tile", align 1
  store i32 %m, ptr %m.addr, align 4, !tbaa !1950
  call addrspace(1) void @llvm.dbg.declare(metadata ptr %m.addr, metadata !1949, metadata !DIExpression()), !dbg !1952
  call addrspace(1) void @llvm.lifetime.start.p0(i64 1, ptr %ref.tmp) #22, !dbg !1953
  call addrspace(1) void @_ZN3aie4tile7currentEv() #24, !dbg !1953
  %0 = load i32, ptr %m.addr, align 4, !dbg !1954, !tbaa !1950
  call addrspace(1) void @_ZN3aie4tile12set_roundingENS_13rounding_modeE(ptr nonnull align 1 dereferenceable(1) %ref.tmp, i32 %0) #24, !dbg !1955
  call addrspace(1) void @llvm.lifetime.end.p0(i64 1, ptr %ref.tmp) #22, !dbg !1953
  ret void, !dbg !1956
}

; Function Attrs: alwaysinline mustprogress nounwind
define linkonce_odr dso_local void @_ZN3aie4tile7currentEv() addrspace(1) #6 comdat align 2 !dbg !1957 {
entry:
  %retval = alloca %"class.aie::tile", align 1
  %ref.tmp = alloca %"class.aie::detail::tile", align 1
  %undef.agg.tmp = alloca %"class.aie::detail::tile", align 1
  call addrspace(1) void @llvm.lifetime.start.p0(i64 1, ptr %ref.tmp) #22, !dbg !1958
  call addrspace(1) void @_ZN3aie6detail4tile7currentEv() #24, !dbg !1958
  call addrspace(1) void @_ZN3aie4tileC2ERKNS_6detail4tileE(ptr nonnull align 1 dereferenceable(1) %retval, ptr nonnull align 1 dereferenceable(1) %ref.tmp) #24, !dbg !1958
  call addrspace(1) void @llvm.lifetime.end.p0(i64 1, ptr %ref.tmp) #22, !dbg !1959
  ret void, !dbg !1959
}

; Function Attrs: alwaysinline mustprogress nounwind
define linkonce_odr dso_local void @_ZN3aie4tile12set_roundingENS_13rounding_modeE(ptr nonnull align 1 dereferenceable(1) %this, i32 %mode) addrspace(1) #6 comdat align 2 !dbg !1960 {
entry:
  %this.addr = alloca ptr, align 4
  %mode.addr = alloca i32, align 4
  store ptr %this, ptr %this.addr, align 4, !tbaa !1542
  call addrspace(1) void @llvm.dbg.declare(metadata ptr %this.addr, metadata !1962, metadata !DIExpression()), !dbg !1965
  store i32 %mode, ptr %mode.addr, align 4, !tbaa !1950
  call addrspace(1) void @llvm.dbg.declare(metadata ptr %mode.addr, metadata !1964, metadata !DIExpression()), !dbg !1966
  %this1 = load ptr, ptr %this.addr, align 4
  %0 = load i32, ptr %mode.addr, align 4, !dbg !1967, !tbaa !1950
  call addrspace(1) void @_ZN3aie6detail4tile12set_roundingENS_13rounding_modeE(ptr nonnull align 1 dereferenceable(1) %this1, i32 %0) #24, !dbg !1968
  ret void, !dbg !1969
}

; Function Attrs: alwaysinline mustprogress nounwind
define linkonce_odr dso_local void @_ZN3aie6detail4tile7currentEv() addrspace(1) #6 comdat align 2 !dbg !1970 {
entry:
  %retval = alloca %"class.aie::detail::tile", align 1
  call addrspace(1) void @_ZN3aie6detail4tileC2Ev(ptr nonnull align 1 dereferenceable(1) %retval) #24, !dbg !1971
  ret void, !dbg !1972
}

; Function Attrs: nounwind
define linkonce_odr dso_local void @_ZN3aie4tileC2ERKNS_6detail4tileE(ptr nonnull align 1 dereferenceable(1) %this, ptr nonnull align 1 dereferenceable(1) %t) unnamed_addr addrspace(1) #8 comdat align 2 !dbg !1973 {
entry:
  %this.addr = alloca ptr, align 4
  %t.addr = alloca ptr, align 4
  store ptr %this, ptr %this.addr, align 4, !tbaa !1542
  call addrspace(1) void @llvm.dbg.declare(metadata ptr %this.addr, metadata !1975, metadata !DIExpression()), !dbg !1977
  store ptr %t, ptr %t.addr, align 4, !tbaa !1542
  call addrspace(1) void @llvm.dbg.declare(metadata ptr %t.addr, metadata !1976, metadata !DIExpression()), !dbg !1978
  %this1 = load ptr, ptr %this.addr, align 4
  %0 = load ptr, ptr %t.addr, align 4, !dbg !1979, !tbaa !1542
  ret void, !dbg !1980
}

; Function Attrs: alwaysinline nounwind
define linkonce_odr dso_local void @_ZN3aie6detail4tileC2Ev(ptr nonnull align 1 dereferenceable(1) %this) unnamed_addr addrspace(1) #11 comdat align 2 !dbg !1981 {
entry:
  %this.addr = alloca ptr, align 4
  store ptr %this, ptr %this.addr, align 4, !tbaa !1542
  call addrspace(1) void @llvm.dbg.declare(metadata ptr %this.addr, metadata !1983, metadata !DIExpression()), !dbg !1985
  %this1 = load ptr, ptr %this.addr, align 4
  ret void, !dbg !1986
}

; Function Attrs: alwaysinline mustprogress nounwind
define linkonce_odr dso_local void @_ZN3aie6detail4tile12set_roundingENS_13rounding_modeE(ptr nonnull align 1 dereferenceable(1) %this, i32 %mode) addrspace(1) #6 comdat align 2 !dbg !1987 {
entry:
  %this.addr = alloca ptr, align 4
  %mode.addr = alloca i32, align 4
  store ptr %this, ptr %this.addr, align 4, !tbaa !1542
  call addrspace(1) void @llvm.dbg.declare(metadata ptr %this.addr, metadata !1989, metadata !DIExpression()), !dbg !1991
  store i32 %mode, ptr %mode.addr, align 4, !tbaa !1950
  call addrspace(1) void @llvm.dbg.declare(metadata ptr %mode.addr, metadata !1990, metadata !DIExpression()), !dbg !1992
  %this1 = load ptr, ptr %this.addr, align 4
  %0 = load i32, ptr %mode.addr, align 4, !dbg !1993, !tbaa !1950
  call addrspace(1) void @_Z7set_rndj(i32 %0) #24, !dbg !1994
  ret void, !dbg !1995
}

; Function Attrs: alwaysinline mustprogress nounwind
define linkonce_odr dso_local void @_Z7set_rndj(i32 %val) addrspace(1) #6 comdat {
entry:
  %val.addr = alloca i32, align 4
  store i32 %val, ptr %val.addr, align 4, !tbaa !1755
  %0 = load i32, ptr %val.addr, align 4, !tbaa !1755
  store i32 %0, ptr @_ZN12me_primitive11control_rndE, align 4, !tbaa !1755
  ret void
}

; Function Attrs: alwaysinline mustprogress nounwind
define internal void @_ZN3aieL14set_saturationENS_15saturation_modeE(i32 %m) addrspace(1) #6 !dbg !1996 {
entry:
  %m.addr = alloca i32, align 4
  %ref.tmp = alloca %"class.aie::tile", align 1
  %undef.agg.tmp = alloca %"class.aie::tile", align 1
  store i32 %m, ptr %m.addr, align 4, !tbaa !2001
  call addrspace(1) void @llvm.dbg.declare(metadata ptr %m.addr, metadata !2000, metadata !DIExpression()), !dbg !2003
  call addrspace(1) void @llvm.lifetime.start.p0(i64 1, ptr %ref.tmp) #22, !dbg !2004
  call addrspace(1) void @_ZN3aie4tile7currentEv() #24, !dbg !2004
  %0 = load i32, ptr %m.addr, align 4, !dbg !2005, !tbaa !2001
  call addrspace(1) void @_ZN3aie4tile14set_saturationENS_15saturation_modeE(ptr nonnull align 1 dereferenceable(1) %ref.tmp, i32 %0) #24, !dbg !2006
  call addrspace(1) void @llvm.lifetime.end.p0(i64 1, ptr %ref.tmp) #22, !dbg !2004
  ret void, !dbg !2007
}

; Function Attrs: alwaysinline mustprogress nounwind
define linkonce_odr dso_local void @_ZN3aie4tile14set_saturationENS_15saturation_modeE(ptr nonnull align 1 dereferenceable(1) %this, i32 %mode) addrspace(1) #6 comdat align 2 !dbg !2008 {
entry:
  %this.addr = alloca ptr, align 4
  %mode.addr = alloca i32, align 4
  store ptr %this, ptr %this.addr, align 4, !tbaa !1542
  call addrspace(1) void @llvm.dbg.declare(metadata ptr %this.addr, metadata !2010, metadata !DIExpression()), !dbg !2012
  store i32 %mode, ptr %mode.addr, align 4, !tbaa !2001
  call addrspace(1) void @llvm.dbg.declare(metadata ptr %mode.addr, metadata !2011, metadata !DIExpression()), !dbg !2013
  %this1 = load ptr, ptr %this.addr, align 4
  %0 = load i32, ptr %mode.addr, align 4, !dbg !2014, !tbaa !2001
  call addrspace(1) void @_ZN3aie6detail4tile14set_saturationENS_15saturation_modeE(ptr nonnull align 1 dereferenceable(1) %this1, i32 %0) #24, !dbg !2015
  ret void, !dbg !2016
}

; Function Attrs: alwaysinline mustprogress nounwind
define linkonce_odr dso_local void @_ZN3aie6detail4tile14set_saturationENS_15saturation_modeE(ptr nonnull align 1 dereferenceable(1) %this, i32 %mode) addrspace(1) #6 comdat align 2 !dbg !2017 {
entry:
  %this.addr = alloca ptr, align 4
  %mode.addr = alloca i32, align 4
  store ptr %this, ptr %this.addr, align 4, !tbaa !1542
  call addrspace(1) void @llvm.dbg.declare(metadata ptr %this.addr, metadata !2019, metadata !DIExpression()), !dbg !2021
  store i32 %mode, ptr %mode.addr, align 4, !tbaa !2001
  call addrspace(1) void @llvm.dbg.declare(metadata ptr %mode.addr, metadata !2020, metadata !DIExpression()), !dbg !2022
  %this1 = load ptr, ptr %this.addr, align 4
  %0 = load i32, ptr %mode.addr, align 4, !dbg !2023, !tbaa !2001
  call addrspace(1) void @_Z11set_satmodej(i32 %0) #24, !dbg !2024
  ret void, !dbg !2025
}

; Function Attrs: alwaysinline mustprogress nounwind
define linkonce_odr dso_local void @_Z11set_satmodej(i32 %val) addrspace(1) #6 comdat {
entry:
  %val.addr = alloca i32, align 4
  store i32 %val, ptr %val.addr, align 4, !tbaa !1755
  %0 = load i32, ptr %val.addr, align 4, !tbaa !1755
  store i32 %0, ptr @_ZN12me_primitive11control_satE, align 4, !tbaa !1755
  ret void
}

; Function Attrs: alwaysinline nounwind
define linkonce_odr dso_local void @_ZN3aie6detail11vector_baseIfLj8EEC2Ev(ptr nonnull align 32 dereferenceable(32) %this) unnamed_addr addrspace(1) #11 comdat align 2 !dbg !2026 {
entry:
  %this.addr = alloca ptr, align 4
  store ptr %this, ptr %this.addr, align 4, !tbaa !1542
  call addrspace(1) void @llvm.dbg.declare(metadata ptr %this.addr, metadata !2028, metadata !DIExpression()), !dbg !2030
  %this1 = load ptr, ptr %this.addr, align 4
  %data = getelementptr inbounds %"class.aie::detail::vector_base", ptr %this1, i32 0, i32 0, !dbg !2031
  %call = call addrspace(1) %struct.v8float @_ZN3aie6detail14vector_storageIfLj8EE5undefEv() #24, !dbg !2032
  %0 = getelementptr inbounds %struct.v8float, ptr %data, i32 0, i32 0, !dbg !2032
  %1 = extractvalue %struct.v8float %call, 0, !dbg !2032
  store %struct.ipd.custom_type.v64int4.v64int4 %1, ptr %0, align 32, !dbg !2032
  ret void, !dbg !2033
}

; Function Attrs: mustprogress nounwind
define linkonce_odr dso_local %struct.v8float @_ZN3aie6detail14vector_storageIfLj8EE5undefEv() addrspace(1) #9 comdat align 2 !dbg !2034 {
entry:
  %retval = alloca %struct.v8float, align 32
  %call = call addrspace(1) %struct.v8float @_Z13undef_v8floatv() #24, !dbg !2035
  %0 = getelementptr inbounds %struct.v8float, ptr %retval, i32 0, i32 0, !dbg !2035
  %1 = extractvalue %struct.v8float %call, 0, !dbg !2035
  store %struct.ipd.custom_type.v64int4.v64int4 %1, ptr %0, align 32, !dbg !2035
  %2 = load %struct.v8float, ptr %retval, align 32, !dbg !2036
  ret %struct.v8float %2, !dbg !2036
}

; Function Attrs: alwaysinline mustprogress nounwind
define linkonce_odr dso_local %struct.v8float @_Z13undef_v8floatv() addrspace(1) #6 comdat {
entry:
  %retval = alloca %struct.v8float, align 32
  %call = call x86_regcallcc addrspace(1) %struct.v8float @__regcall3__chessintr_v8float_undef_v8float() #25
  %0 = getelementptr inbounds %struct.v8float, ptr %retval, i32 0, i32 0
  %1 = extractvalue %struct.v8float %call, 0
  store %struct.ipd.custom_type.v64int4.v64int4 %1, ptr %0, align 32
  %2 = load %struct.v8float, ptr %retval, align 32
  ret %struct.v8float %2
}

; Function Attrs: nounwind willreturn memory(none)
declare dso_local x86_regcallcc %struct.v8float @__regcall3__chessintr_v8float_undef_v8float() addrspace(1) #14

; Function Attrs: mustprogress nounwind
define linkonce_odr dso_local %struct.v8accfloat @_ZN3aie6detail13accum_storageILNS0_10AccumClassE2ELj32ELj8EE5undefEv() addrspace(1) #9 comdat align 2 !dbg !2037 {
entry:
  %retval = alloca %struct.v8accfloat, align 32
  %call = call addrspace(1) %struct.v8accfloat @_Z16undef_v8accfloatv() #24, !dbg !2038
  %0 = getelementptr inbounds %struct.v8accfloat, ptr %retval, i32 0, i32 0, !dbg !2038
  %1 = extractvalue %struct.v8accfloat %call, 0, !dbg !2038
  store %struct.ipd.custom_type.v8acc32.v8acc32 %1, ptr %0, align 32, !dbg !2038
  %2 = load %struct.v8accfloat, ptr %retval, align 32, !dbg !2039
  ret %struct.v8accfloat %2, !dbg !2039
}

; Function Attrs: alwaysinline mustprogress nounwind
define linkonce_odr dso_local %struct.v8accfloat @_Z16undef_v8accfloatv() addrspace(1) #6 comdat {
entry:
  %retval = alloca %struct.v8accfloat, align 32
  %call = call x86_regcallcc addrspace(1) %struct.v8accfloat @__regcall3__chessintr_v8accfloat_undef_v8accfloat() #25
  %0 = getelementptr inbounds %struct.v8accfloat, ptr %retval, i32 0, i32 0
  %1 = extractvalue %struct.v8accfloat %call, 0
  store %struct.ipd.custom_type.v8acc32.v8acc32 %1, ptr %0, align 32
  %2 = load %struct.v8accfloat, ptr %retval, align 32
  ret %struct.v8accfloat %2
}

; Function Attrs: nounwind willreturn memory(none)
declare dso_local x86_regcallcc %struct.v8accfloat @__regcall3__chessintr_v8accfloat_undef_v8accfloat() addrspace(1) #14

; Function Attrs: alwaysinline mustprogress nounwind
define linkonce_odr dso_local %"class.aie::vector" @_ZN3aie6detail10zeros_bitsILj32EfLj8EE3runEv() addrspace(1) #6 comdat align 2 !dbg !2040 {
entry:
  %retval = alloca %"class.aie::vector", align 32
  %call = call addrspace(1) %"class.aie::vector" @_ZN3aie6detail15zeros_bits_implILj32EfLj8EE3runEv() #24, !dbg !2050
  %0 = getelementptr inbounds %"class.aie::vector", ptr %retval, i32 0, i32 0, !dbg !2050
  %1 = extractvalue %"class.aie::vector" %call, 0, !dbg !2050
  store %"class.aie::detail::vector_base" %1, ptr %0, align 32, !dbg !2050
  %2 = load %"class.aie::vector", ptr %retval, align 32, !dbg !2052
  ret %"class.aie::vector" %2, !dbg !2052
}

; Function Attrs: alwaysinline mustprogress nounwind
define linkonce_odr dso_local %"class.aie::vector" @_ZN3aie6detail15zeros_bits_implILj32EfLj8EE3runEv() addrspace(1) #6 comdat align 2 !dbg !2053 {
entry:
  %retval = alloca %"class.aie::vector", align 32
  %native_zeros_elems = alloca i32, align 4
  %custom_type.tmp = alloca %"class.aie::vector", align 32
  %ref.tmp = alloca %"class.aie::vector.0", align 32
  %agg.tmp = alloca %"class.aie::vector", align 32
  store i32 undef, ptr %native_zeros_elems, align 4, !dbg !2064
  call addrspace(1) void @llvm.lifetime.start.p0(i64 4, ptr %native_zeros_elems) #22, !dbg !2064
  call addrspace(1) void @llvm.dbg.declare(metadata ptr %native_zeros_elems, metadata !2062, metadata !DIExpression()), !dbg !2065
  store i32 16, ptr %native_zeros_elems, align 4, !dbg !2065, !tbaa !1755
  call addrspace(1) void @llvm.dbg.declare(metadata ptr %retval, metadata !2063, metadata !DIExpression()), !dbg !2066
  call addrspace(1) void @_ZN3aie6vectorIfLj8EEC2Ev(ptr nonnull align 32 dereferenceable(32) %custom_type.tmp) #24, !dbg !2066
  %0 = load %"class.aie::vector", ptr %custom_type.tmp, align 32, !dbg !2066, !tbaa !1704
  store %"class.aie::vector" %0, ptr %retval, align 32, !dbg !2066, !tbaa !1704
  call addrspace(1) void @llvm.lifetime.start.p0(i64 64, ptr %ref.tmp) #22, !dbg !2067
  %call = call addrspace(1) %"class.aie::vector.0" @_ZN3aie6detail15zeros_bits_implILj32EfLj16EE3runEv() #24, !dbg !2067
  %1 = getelementptr inbounds %"class.aie::vector.0", ptr %ref.tmp, i32 0, i32 0, !dbg !2067
  %2 = extractvalue %"class.aie::vector.0" %call, 0, !dbg !2067
  store %"class.aie::detail::vector_base.1" %2, ptr %1, align 32, !dbg !2067
  %call1 = call addrspace(1) %"class.aie::vector" @_ZNK3aie6vectorIfLj16EE7extractILj8EEENS0_IfXT_EEEj(ptr nonnull align 32 dereferenceable(64) %ref.tmp, i32 0) #24, !dbg !2070
  %3 = getelementptr inbounds %"class.aie::vector", ptr %agg.tmp, i32 0, i32 0, !dbg !2070
  %4 = extractvalue %"class.aie::vector" %call1, 0, !dbg !2070
  store %"class.aie::detail::vector_base" %4, ptr %3, align 32, !dbg !2070
  %5 = load %"class.aie::vector", ptr %agg.tmp, align 32, !dbg !2071, !tbaa !1704
  call addrspace(1) void @llvm.lifetime.end.p0(i64 64, ptr %ref.tmp) #22, !dbg !2072
  call addrspace(1) void @llvm.lifetime.end.p0(i64 4, ptr %native_zeros_elems) #22, !dbg !2073
  ret %"class.aie::vector" %5, !dbg !2071
}

; Function Attrs: alwaysinline mustprogress nounwind
define linkonce_odr dso_local %"class.aie::vector.0" @_ZN3aie6detail15zeros_bits_implILj32EfLj16EE3runEv() addrspace(1) #6 comdat align 2 !dbg !2074 {
entry:
  %retval = alloca %"class.aie::vector.0", align 32
  %native_zeros_elems = alloca i32, align 4
  %custom_type.tmp = alloca %"class.aie::vector.0", align 32
  %tmp = alloca %"class.aie::vector.0", align 32
  %agg.tmp = alloca %struct.v16float, align 32
  store i32 undef, ptr %native_zeros_elems, align 4, !dbg !2085
  call addrspace(1) void @llvm.lifetime.start.p0(i64 4, ptr %native_zeros_elems) #22, !dbg !2085
  call addrspace(1) void @llvm.dbg.declare(metadata ptr %native_zeros_elems, metadata !2083, metadata !DIExpression()), !dbg !2086
  store i32 16, ptr %native_zeros_elems, align 4, !dbg !2086, !tbaa !1755
  call addrspace(1) void @llvm.dbg.declare(metadata ptr %retval, metadata !2084, metadata !DIExpression()), !dbg !2087
  call addrspace(1) void @_ZN3aie6vectorIfLj16EEC2Ev(ptr nonnull align 32 dereferenceable(64) %custom_type.tmp) #24, !dbg !2087
  %0 = load %"class.aie::vector.0", ptr %custom_type.tmp, align 32, !dbg !2087, !tbaa !2088
  store %"class.aie::vector.0" %0, ptr %retval, align 32, !dbg !2087, !tbaa !2088
  %call = call addrspace(1) %struct.v16float @_Z26broadcast_zero_to_v16floatv() #24, !dbg !2092
  %1 = getelementptr inbounds %struct.v16float, ptr %agg.tmp, i32 0, i32 0, !dbg !2092
  %2 = extractvalue %struct.v16float %call, 0, !dbg !2092
  store %struct.ipd.custom_type.v128int4.v128int4 %2, ptr %1, align 32, !dbg !2092
  %3 = load %struct.v16float, ptr %agg.tmp, align 32, !dbg !2092, !tbaa !2099
  call addrspace(1) void @_ZN3aie6vectorIfLj16EEC2E8v16float(ptr nonnull align 32 dereferenceable(64) %tmp, %struct.v16float %3) #24, !dbg !2092
  %4 = load %"class.aie::vector.0", ptr %tmp, align 32, !dbg !2100, !tbaa !2088
  call addrspace(1) void @llvm.lifetime.end.p0(i64 4, ptr %native_zeros_elems) #22, !dbg !2101
  ret %"class.aie::vector.0" %4, !dbg !2100
}

; Function Attrs: alwaysinline mustprogress nounwind
define linkonce_odr dso_local %"class.aie::vector" @_ZNK3aie6vectorIfLj16EE7extractILj8EEENS0_IfXT_EEEj(ptr nonnull align 32 dereferenceable(64) %this, i32 %idx) addrspace(1) #6 comdat align 2 !dbg !2102 {
entry:
  %this.addr = alloca ptr, align 4
  %idx.addr = alloca i32, align 4
  %custom_type.tmp = alloca %"class.aie::vector", align 32
  %ref.tmp = alloca %"class.aie::detail::vector_base", align 32
  store ptr %this, ptr %this.addr, align 4, !tbaa !1542
  call addrspace(1) void @llvm.dbg.declare(metadata ptr %this.addr, metadata !2109, metadata !DIExpression()), !dbg !2112
  store i32 %idx, ptr %idx.addr, align 4, !tbaa !1755
  call addrspace(1) void @llvm.dbg.declare(metadata ptr %idx.addr, metadata !2111, metadata !DIExpression()), !dbg !2113
  %this1 = load ptr, ptr %this.addr, align 4
  call addrspace(1) void @llvm.lifetime.start.p0(i64 32, ptr %ref.tmp) #22, !dbg !2114
  %0 = load i32, ptr %idx.addr, align 4, !dbg !2115, !tbaa !1755
  %call = call addrspace(1) %"class.aie::detail::vector_base" @_ZNK3aie6detail11vector_baseIfLj16EE7extractILj8EEENS1_IfXT_EEEj(ptr nonnull align 32 dereferenceable(64) %this1, i32 %0) #24, !dbg !2116
  %1 = getelementptr inbounds %"class.aie::detail::vector_base", ptr %ref.tmp, i32 0, i32 0, !dbg !2116
  %2 = extractvalue %"class.aie::detail::vector_base" %call, 0, !dbg !2116
  store %struct.v8float %2, ptr %1, align 32, !dbg !2116
  call addrspace(1) void @_ZN3aie6vectorIfLj8EEC2ERKNS_6detail11vector_baseIfLj8EEE(ptr nonnull align 32 dereferenceable(32) %custom_type.tmp, ptr nonnull align 32 dereferenceable(32) %ref.tmp) #24, !dbg !2114
  %3 = load %"class.aie::vector", ptr %custom_type.tmp, align 32, !dbg !2114, !tbaa !1704
  call addrspace(1) void @llvm.lifetime.end.p0(i64 32, ptr %ref.tmp) #22, !dbg !2117
  ret %"class.aie::vector" %3, !dbg !2114
}

; Function Attrs: alwaysinline nounwind
define linkonce_odr dso_local void @_ZN3aie6vectorIfLj16EEC2Ev(ptr nonnull align 32 dereferenceable(64) %this) unnamed_addr addrspace(1) #11 comdat align 2 !dbg !2118 {
entry:
  %this.addr = alloca ptr, align 4
  store ptr %this, ptr %this.addr, align 4, !tbaa !1542
  call addrspace(1) void @llvm.dbg.declare(metadata ptr %this.addr, metadata !2120, metadata !DIExpression()), !dbg !2122
  %this1 = load ptr, ptr %this.addr, align 4
  call addrspace(1) void @_ZN3aie6detail11vector_baseIfLj16EEC2Ev(ptr nonnull align 32 dereferenceable(64) %this1) #24, !dbg !2123
  ret void, !dbg !2124
}

; Function Attrs: alwaysinline mustprogress nounwind
define linkonce_odr dso_local %struct.v16float @_Z26broadcast_zero_to_v16floatv() addrspace(1) #6 comdat {
entry:
  %custom_type.tmp = alloca %struct.v16float, align 32
  %agg.tmp = alloca %struct.v16int32, align 32
  %call = call addrspace(1) %struct.v16int32 @_Z13broadcast_s32i(i32 0) #26
  %0 = getelementptr inbounds %struct.v16int32, ptr %agg.tmp, i32 0, i32 0
  %1 = extractvalue %struct.v16int32 %call, 0
  store %struct.ipd.custom_type.v128int4.v128int4 %1, ptr %0, align 32
  %2 = load %struct.v16int32, ptr %agg.tmp, align 32, !tbaa !2099
  call addrspace(1) void @_ZN8v16floatC2E8v16int32(ptr nonnull align 32 dereferenceable(64) %custom_type.tmp, %struct.v16int32 %2) #27
  %3 = load %struct.v16float, ptr %custom_type.tmp, align 32, !tbaa !2099
  ret %struct.v16float %3
}

; Function Attrs: alwaysinline nounwind
define linkonce_odr dso_local void @_ZN3aie6vectorIfLj16EEC2E8v16float(ptr nonnull align 32 dereferenceable(64) %this, %struct.v16float %v.coerce) unnamed_addr addrspace(1) #11 comdat align 2 !dbg !2125 {
entry:
  %v = alloca %struct.v16float, align 32
  %this.addr = alloca ptr, align 4
  store %struct.v16float %v.coerce, ptr %v, align 32
  store ptr %this, ptr %this.addr, align 4, !tbaa !1542
  call addrspace(1) void @llvm.dbg.declare(metadata ptr %this.addr, metadata !2127, metadata !DIExpression()), !dbg !2129
  call addrspace(1) void @llvm.dbg.declare(metadata ptr %v, metadata !2128, metadata !DIExpression()), !dbg !2130
  %this1 = load ptr, ptr %this.addr, align 4
  %0 = load %struct.v16float, ptr %v, align 32, !dbg !2131, !tbaa !2099
  call addrspace(1) void @_ZN3aie6detail11vector_baseIfLj16EEC2E8v16float(ptr nonnull align 32 dereferenceable(64) %this1, %struct.v16float %0) #24, !dbg !2131
  ret void, !dbg !2132
}

; Function Attrs: mustprogress nounwind
define linkonce_odr dso_local %struct.v16float @_ZN3aie6detail14vector_storageIfLj16EE5undefEv() addrspace(1) #9 comdat align 2 !dbg !2133 {
entry:
  %retval = alloca %struct.v16float, align 32
  %call = call addrspace(1) %struct.v16float @_Z14undef_v16floatv() #24, !dbg !2134
  %0 = getelementptr inbounds %struct.v16float, ptr %retval, i32 0, i32 0, !dbg !2134
  %1 = extractvalue %struct.v16float %call, 0, !dbg !2134
  store %struct.ipd.custom_type.v128int4.v128int4 %1, ptr %0, align 32, !dbg !2134
  %2 = load %struct.v16float, ptr %retval, align 32, !dbg !2135
  ret %struct.v16float %2, !dbg !2135
}

; Function Attrs: alwaysinline mustprogress nounwind
define linkonce_odr dso_local %struct.v16float @_Z14undef_v16floatv() addrspace(1) #6 comdat {
entry:
  %retval = alloca %struct.v16float, align 32
  %call = call x86_regcallcc addrspace(1) %struct.v16float @__regcall3__chessintr_v16float_undef_v16float() #25
  %0 = getelementptr inbounds %struct.v16float, ptr %retval, i32 0, i32 0
  %1 = extractvalue %struct.v16float %call, 0
  store %struct.ipd.custom_type.v128int4.v128int4 %1, ptr %0, align 32
  %2 = load %struct.v16float, ptr %retval, align 32
  ret %struct.v16float %2
}

; Function Attrs: nounwind willreturn memory(none)
declare dso_local x86_regcallcc %struct.v16float @__regcall3__chessintr_v16float_undef_v16float() addrspace(1) #14

; Function Attrs: alwaysinline mustprogress nounwind
define linkonce_odr dso_local %struct.v16int32 @_Z13broadcast_s32i(i32 %a0) addrspace(1) #15 comdat {
entry:
  %retval = alloca %struct.v16int32, align 32
  %a0.addr = alloca i32, align 4
  store i32 %a0, ptr %a0.addr, align 4, !tbaa !1755
  %0 = load i32, ptr %a0.addr, align 4, !tbaa !1755
  %call = call x86_regcallcc addrspace(1) %struct.v16int32 @__regcall3__chessintr_v16int32_broadcast_s32___sint(i32 signext %0) #25
  %1 = getelementptr inbounds %struct.v16int32, ptr %retval, i32 0, i32 0
  %2 = extractvalue %struct.v16int32 %call, 0
  store %struct.ipd.custom_type.v128int4.v128int4 %2, ptr %1, align 32
  %3 = load %struct.v16int32, ptr %retval, align 32
  ret %struct.v16int32 %3
}

; Function Attrs: alwaysinline nounwind
define linkonce_odr dso_local void @_ZN8v16floatC2E8v16int32(ptr nonnull align 32 dereferenceable(64) %this, %struct.v16int32 %a0.coerce) unnamed_addr addrspace(1) #16 comdat align 2 {
entry:
  %a0 = alloca %struct.v16int32, align 32
  %this.addr = alloca ptr, align 4
  %custom_type.tmp = alloca %struct.ipd.custom_type.v128int4.v128int4, align 32
  %agg.tmp = alloca %struct.v16float, align 32
  store %struct.v16int32 %a0.coerce, ptr %a0, align 32
  store ptr %this, ptr %this.addr, align 4, !tbaa !1542
  %this1 = load ptr, ptr %this.addr, align 4
  %mw = getelementptr inbounds %struct.v16float, ptr %this1, i32 0, i32 0
  %0 = load %struct.ipd.custom_type.v128int4.v128int4, ptr %custom_type.tmp, align 32, !tbaa !2099
  store %struct.ipd.custom_type.v128int4.v128int4 %0, ptr %mw, align 32, !tbaa !2099
  %1 = load %struct.v16int32, ptr %a0, align 32, !tbaa !2099
  %call = call x86_regcallcc addrspace(1) %struct.v16float @__regcall3__chessintr_v16float_v16float_v16int32(%struct.v16int32 %1) #25
  %2 = getelementptr inbounds %struct.v16float, ptr %agg.tmp, i32 0, i32 0
  %3 = extractvalue %struct.v16float %call, 0
  store %struct.ipd.custom_type.v128int4.v128int4 %3, ptr %2, align 32
  %4 = load %struct.v16float, ptr %agg.tmp, align 32, !tbaa !2099
  store %struct.v16float %4, ptr %this1, align 32, !tbaa !2099
  ret void
}

; Function Attrs: nounwind willreturn memory(none)
declare dso_local x86_regcallcc %struct.v16int32 @__regcall3__chessintr_v16int32_broadcast_s32___sint(i32 signext) addrspace(1) #14

; Function Attrs: nounwind willreturn memory(none)
declare dso_local x86_regcallcc %struct.v16float @__regcall3__chessintr_v16float_v16float_v16int32(%struct.v16int32) addrspace(1) #14

; Function Attrs: alwaysinline mustprogress nounwind
define linkonce_odr dso_local %"class.aie::detail::vector_base" @_ZNK3aie6detail11vector_baseIfLj16EE7extractILj8EEENS1_IfXT_EEEj(ptr nonnull align 32 dereferenceable(64) %this, i32 %idx) addrspace(1) #6 comdat align 2 !dbg !2136 {
entry:
  %retval = alloca %"class.aie::detail::vector_base", align 32
  %this.addr = alloca ptr, align 4
  %idx.addr = alloca i32, align 4
  store ptr %this, ptr %this.addr, align 4, !tbaa !1542
  call addrspace(1) void @llvm.dbg.declare(metadata ptr %this.addr, metadata !2141, metadata !DIExpression()), !dbg !2144
  store i32 %idx, ptr %idx.addr, align 4, !tbaa !1755
  call addrspace(1) void @llvm.dbg.declare(metadata ptr %idx.addr, metadata !2143, metadata !DIExpression()), !dbg !2145
  %this1 = load ptr, ptr %this.addr, align 4
  br label %do.body, !dbg !2146

do.body:                                          ; preds = %entry
  %0 = load i32, ptr %idx.addr, align 4, !dbg !2147, !tbaa !1755
  %cmp = icmp ult i32 %0, 2, !dbg !2147
  %1 = call addrspace(1) i1 @llvm.is.constant.i1(i1 %cmp), !dbg !2147
  br i1 %1, label %if.then, label %if.else, !dbg !2150

if.then:                                          ; preds = %do.body
  br label %do.body2, !dbg !2151

do.body2:                                         ; preds = %if.then
  %2 = load i32, ptr %idx.addr, align 4, !dbg !2153, !tbaa !1755
  %cmp3 = icmp ult i32 %2, 2, !dbg !2153
  %3 = call addrspace(1) i1 @llvm.chess_manifest(i1 %cmp3), !dbg !2153
  br i1 %3, label %if.end, label %if.then4, !dbg !2156

if.then4:                                         ; preds = %do.body2
  call addrspace(1) void @llvm.chess_error(metadata !2157), !dbg !2153
  br label %if.end, !dbg !2153

if.end:                                           ; preds = %if.then4, %do.body2
  br label %do.end, !dbg !2156

do.end:                                           ; preds = %if.end
  br label %if.end6, !dbg !2151

if.else:                                          ; preds = %do.body
  %4 = load i32, ptr %idx.addr, align 4, !dbg !2158, !tbaa !1755
  %cmp5 = icmp ult i32 %4, 2, !dbg !2158
  call addrspace(1) void @llvm.assume(i1 %cmp5), !dbg !2158
  br label %if.end6

if.end6:                                          ; preds = %if.else, %do.end
  br label %do.end7, !dbg !2150

do.end7:                                          ; preds = %if.end6
  %5 = load i32, ptr %idx.addr, align 4, !dbg !2160, !tbaa !1755
  %call = call addrspace(1) %"class.aie::detail::vector_base" @_ZNK3aie6detail11vector_baseIfLj16EE14extract_helperILj8EEENS1_IfXT_EEEj(ptr nonnull align 32 dereferenceable(64) %this1, i32 %5) #24, !dbg !2161
  %6 = getelementptr inbounds %"class.aie::detail::vector_base", ptr %retval, i32 0, i32 0, !dbg !2161
  %7 = extractvalue %"class.aie::detail::vector_base" %call, 0, !dbg !2161
  store %struct.v8float %7, ptr %6, align 32, !dbg !2161
  %8 = load %"class.aie::detail::vector_base", ptr %retval, align 32, !dbg !2162
  ret %"class.aie::detail::vector_base" %8, !dbg !2162
}

; Function Attrs: alwaysinline nounwind
define linkonce_odr dso_local void @_ZN3aie6vectorIfLj8EEC2ERKNS_6detail11vector_baseIfLj8EEE(ptr nonnull align 32 dereferenceable(32) %this, ptr nonnull align 32 dereferenceable(32) %v) unnamed_addr addrspace(1) #11 comdat align 2 !dbg !2163 {
entry:
  %this.addr = alloca ptr, align 4
  %v.addr = alloca ptr, align 4
  store ptr %this, ptr %this.addr, align 4, !tbaa !1542
  call addrspace(1) void @llvm.dbg.declare(metadata ptr %this.addr, metadata !2165, metadata !DIExpression()), !dbg !2167
  store ptr %v, ptr %v.addr, align 4, !tbaa !1542
  call addrspace(1) void @llvm.dbg.declare(metadata ptr %v.addr, metadata !2166, metadata !DIExpression()), !dbg !2168
  %this1 = load ptr, ptr %this.addr, align 4
  %0 = load ptr, ptr %v.addr, align 4, !dbg !2169, !tbaa !1542
  %1 = load %"class.aie::detail::vector_base", ptr %0, align 32, !dbg !2170, !tbaa !2171
  store %"class.aie::detail::vector_base" %1, ptr %this1, align 32, !dbg !2170, !tbaa !2171
  ret void, !dbg !2172
}

; Function Attrs: convergent nocallback nofree nosync nounwind willreturn memory(none)
declare i1 @llvm.is.constant.i1(i1) addrspace(1) #17

; Function Attrs: nounwind willreturn memory(none)
declare i1 @llvm.chess_manifest(i1) addrspace(1) #7

; Function Attrs: nounwind willreturn
declare void @llvm.chess_error(metadata) addrspace(1) #18

; Function Attrs: alwaysinline mustprogress nounwind
define linkonce_odr dso_local %"class.aie::detail::vector_base" @_ZNK3aie6detail11vector_baseIfLj16EE14extract_helperILj8EEENS1_IfXT_EEEj(ptr nonnull align 32 dereferenceable(64) %this, i32 %idx) addrspace(1) #6 comdat align 2 !dbg !2173 {
entry:
  %retval = alloca %"class.aie::detail::vector_base", align 32
  %this.addr = alloca ptr, align 4
  %idx.addr = alloca i32, align 4
  %output_bits = alloca i32, align 4
  %agg.tmp = alloca %struct.v8float, align 32
  store ptr %this, ptr %this.addr, align 4, !tbaa !1542
  call addrspace(1) void @llvm.dbg.declare(metadata ptr %this.addr, metadata !2177, metadata !DIExpression()), !dbg !2180
  store i32 %idx, ptr %idx.addr, align 4, !tbaa !1755
  call addrspace(1) void @llvm.dbg.declare(metadata ptr %idx.addr, metadata !2178, metadata !DIExpression()), !dbg !2181
  %this1 = load ptr, ptr %this.addr, align 4
  store i32 undef, ptr %output_bits, align 4, !dbg !2182
  call addrspace(1) void @llvm.lifetime.start.p0(i64 4, ptr %output_bits) #22, !dbg !2182
  call addrspace(1) void @llvm.dbg.declare(metadata ptr %output_bits, metadata !2179, metadata !DIExpression()), !dbg !2183
  store i32 256, ptr %output_bits, align 4, !dbg !2183, !tbaa !1755
  %data = getelementptr inbounds %"class.aie::detail::vector_base.1", ptr %this1, i32 0, i32 0, !dbg !2184
  %0 = load i32, ptr %idx.addr, align 4, !dbg !2192, !tbaa !1755
  %call = call addrspace(1) %struct.v8float @_ZN3aie6detailL14vector_extractILj8E8v16floatEEDaRKT0_j(ptr nonnull align 32 dereferenceable(64) %data, i32 noundef %0) #24, !dbg !2193
  %1 = getelementptr inbounds %struct.v8float, ptr %agg.tmp, i32 0, i32 0, !dbg !2193
  %2 = extractvalue %struct.v8float %call, 0, !dbg !2193
  store %struct.ipd.custom_type.v64int4.v64int4 %2, ptr %1, align 32, !dbg !2193
  %3 = load %struct.v8float, ptr %agg.tmp, align 32, !dbg !2193, !tbaa !2194
  call addrspace(1) void @_ZN3aie6detail11vector_baseIfLj8EEC2E7v8float(ptr nonnull align 32 dereferenceable(32) %retval, %struct.v8float %3) #24, !dbg !2193
  call addrspace(1) void @llvm.lifetime.end.p0(i64 4, ptr %output_bits) #22, !dbg !2195
  %4 = load %"class.aie::detail::vector_base", ptr %retval, align 32, !dbg !2195
  ret %"class.aie::detail::vector_base" %4, !dbg !2195
}

; Function Attrs: inlinehint mustprogress nounwind
define internal %struct.v8float @_ZN3aie6detailL14vector_extractILj8E8v16floatEEDaRKT0_j(ptr nonnull align 32 dereferenceable(64) %v, i32 noundef %idx) addrspace(1) #5 !dbg !2196 {
entry:
  %retval = alloca %struct.v8float, align 32
  %v.addr = alloca ptr, align 4
  %idx.addr = alloca i32, align 4
  store ptr %v, ptr %v.addr, align 4, !tbaa !1542
  call addrspace(1) void @llvm.dbg.declare(metadata ptr %v.addr, metadata !2202, metadata !DIExpression()), !dbg !2206
  store i32 %idx, ptr %idx.addr, align 4, !tbaa !1755
  call addrspace(1) void @llvm.dbg.declare(metadata ptr %idx.addr, metadata !2203, metadata !DIExpression()), !dbg !2207
  %0 = load ptr, ptr %v.addr, align 4, !dbg !2208, !tbaa !1542
  %1 = load i32, ptr %idx.addr, align 4, !dbg !2209, !tbaa !1755
  %2 = load %struct.v16float, ptr %0, align 32, !dbg !2210, !tbaa !2099
  %call = call addrspace(1) %struct.v8float @_Z15extract_v8float8v16floati(%struct.v16float %2, i32 %1) #24, !dbg !2210
  %3 = getelementptr inbounds %struct.v8float, ptr %retval, i32 0, i32 0, !dbg !2210
  %4 = extractvalue %struct.v8float %call, 0, !dbg !2210
  store %struct.ipd.custom_type.v64int4.v64int4 %4, ptr %3, align 32, !dbg !2210
  %5 = load %struct.v8float, ptr %retval, align 32, !dbg !2211
  ret %struct.v8float %5, !dbg !2211
}

; Function Attrs: alwaysinline nounwind
define linkonce_odr dso_local void @_ZN3aie6detail11vector_baseIfLj8EEC2E7v8float(ptr nonnull align 32 dereferenceable(32) %this, %struct.v8float %data.coerce) unnamed_addr addrspace(1) #11 comdat align 2 !dbg !2212 {
entry:
  %data = alloca %struct.v8float, align 32
  %this.addr = alloca ptr, align 4
  store %struct.v8float %data.coerce, ptr %data, align 32
  store ptr %this, ptr %this.addr, align 4, !tbaa !1542
  call addrspace(1) void @llvm.dbg.declare(metadata ptr %this.addr, metadata !2214, metadata !DIExpression()), !dbg !2216
  call addrspace(1) void @llvm.dbg.declare(metadata ptr %data, metadata !2215, metadata !DIExpression()), !dbg !2217
  %this1 = load ptr, ptr %this.addr, align 4
  %data2 = getelementptr inbounds %"class.aie::detail::vector_base", ptr %this1, i32 0, i32 0, !dbg !2218
  %0 = load %struct.v8float, ptr %data, align 32, !dbg !2219, !tbaa !2194
  store %struct.v8float %0, ptr %data2, align 32, !dbg !2219, !tbaa !2194
  ret void, !dbg !2220
}

; Function Attrs: alwaysinline mustprogress nounwind
define linkonce_odr dso_local %struct.v8float @_Z15extract_v8float8v16floati(%struct.v16float %a.coerce, i32 %idx) addrspace(1) #6 comdat {
entry:
  %retval = alloca %struct.v8float, align 32
  %a = alloca %struct.v16float, align 32
  %idx.addr = alloca i32, align 4
  store %struct.v16float %a.coerce, ptr %a, align 32
  store i32 %idx, ptr %idx.addr, align 4, !tbaa !1755
  %0 = load i32, ptr %idx.addr, align 4, !tbaa !1755
  %rem = srem i32 %0, 2
  %cmp = icmp eq i32 %rem, 0
  br i1 %cmp, label %if.then, label %if.else

if.then:                                          ; preds = %entry
  %1 = load %struct.v16float, ptr %a, align 32, !tbaa !2099
  %call = call addrspace(1) %struct.v8float @_ZN12me_primitive6ext_xlE8v16float(%struct.v16float %1) #26
  %2 = getelementptr inbounds %struct.v8float, ptr %retval, i32 0, i32 0
  %3 = extractvalue %struct.v8float %call, 0
  store %struct.ipd.custom_type.v64int4.v64int4 %3, ptr %2, align 32
  br label %return

if.else:                                          ; preds = %entry
  %4 = load %struct.v16float, ptr %a, align 32, !tbaa !2099
  %call1 = call addrspace(1) %struct.v8float @_ZN12me_primitive6ext_xhE8v16float(%struct.v16float %4) #26
  %5 = getelementptr inbounds %struct.v8float, ptr %retval, i32 0, i32 0
  %6 = extractvalue %struct.v8float %call1, 0
  store %struct.ipd.custom_type.v64int4.v64int4 %6, ptr %5, align 32
  br label %return

return:                                           ; preds = %if.else, %if.then
  %7 = load %struct.v8float, ptr %retval, align 32
  ret %struct.v8float %7
}

; Function Attrs: alwaysinline mustprogress nounwind
define linkonce_odr dso_local %struct.v8float @_ZN12me_primitive6ext_xlE8v16float(%struct.v16float %a0.coerce) addrspace(1) #15 comdat {
entry:
  %retval = alloca %struct.v8float, align 32
  %a0 = alloca %struct.v16float, align 32
  store %struct.v16float %a0.coerce, ptr %a0, align 32
  %0 = load %struct.v16float, ptr %a0, align 32, !tbaa !2099
  %call = call x86_regcallcc addrspace(1) %struct.v8float @__regcall3__chessintr_v8float_ext_xl_v16float(%struct.v16float %0) #25
  %1 = getelementptr inbounds %struct.v8float, ptr %retval, i32 0, i32 0
  %2 = extractvalue %struct.v8float %call, 0
  store %struct.ipd.custom_type.v64int4.v64int4 %2, ptr %1, align 32
  %3 = load %struct.v8float, ptr %retval, align 32
  ret %struct.v8float %3
}

; Function Attrs: alwaysinline mustprogress nounwind
define linkonce_odr dso_local %struct.v8float @_ZN12me_primitive6ext_xhE8v16float(%struct.v16float %a0.coerce) addrspace(1) #15 comdat {
entry:
  %retval = alloca %struct.v8float, align 32
  %a0 = alloca %struct.v16float, align 32
  store %struct.v16float %a0.coerce, ptr %a0, align 32
  %0 = load %struct.v16float, ptr %a0, align 32, !tbaa !2099
  %call = call x86_regcallcc addrspace(1) %struct.v8float @__regcall3__chessintr_v8float_ext_xh_v16float(%struct.v16float %0) #25
  %1 = getelementptr inbounds %struct.v8float, ptr %retval, i32 0, i32 0
  %2 = extractvalue %struct.v8float %call, 0
  store %struct.ipd.custom_type.v64int4.v64int4 %2, ptr %1, align 32
  %3 = load %struct.v8float, ptr %retval, align 32
  ret %struct.v8float %3
}

; Function Attrs: nounwind willreturn memory(none)
declare dso_local x86_regcallcc %struct.v8float @__regcall3__chessintr_v8float_ext_xl_v16float(%struct.v16float) addrspace(1) #14

; Function Attrs: nounwind willreturn memory(none)
declare dso_local x86_regcallcc %struct.v8float @__regcall3__chessintr_v8float_ext_xh_v16float(%struct.v16float) addrspace(1) #14

; Function Attrs: alwaysinline mustprogress nounwind
define linkonce_odr dso_local %"class.aie::accum" @_ZN3aie6detail3adf21cascade_stream_helperI8accfloatLj8EE8readincrEP13input_cascadeIS3_vE(ptr %_w) addrspace(1) #6 comdat align 2 !dbg !2221 {
entry:
  %retval = alloca %"class.aie::accum", align 32
  %_w.addr = alloca ptr, align 4
  %w = alloca ptr, align 4
  %custom_type.tmp = alloca %"class.aie::accum", align 32
  %i = alloca i32, align 4
  %tmp = alloca %"class.aie::accum.2", align 32
  %custom_type.tmp1 = alloca %"class.aie::accum.2", align 32
  %agg.tmp = alloca %struct.v16accfloat, align 32
  %ref.tmp = alloca %"class.aie::accum", align 32
  store ptr %_w, ptr %_w.addr, align 4, !tbaa !1542
  call addrspace(1) void @llvm.dbg.declare(metadata ptr %_w.addr, metadata !2223, metadata !DIExpression()), !dbg !2237
  store ptr undef, ptr %w, align 4, !dbg !2238
  call addrspace(1) void @llvm.lifetime.start.p0(i64 4, ptr %w) #22, !dbg !2238
  call addrspace(1) void @llvm.dbg.declare(metadata ptr %w, metadata !2224, metadata !DIExpression()), !dbg !2239
  %0 = load ptr, ptr %_w.addr, align 4, !dbg !2240, !tbaa !1542
  store ptr %0, ptr %w, align 4, !dbg !2239, !tbaa !1542
  call addrspace(1) void @llvm.dbg.declare(metadata ptr %retval, metadata !2225, metadata !DIExpression()), !dbg !2241
  call addrspace(1) void @_ZN3aie5accumI8accfloatLj8EEC2Ev(ptr nonnull align 32 dereferenceable(32) %custom_type.tmp) #24, !dbg !2241
  %1 = load %"class.aie::accum", ptr %custom_type.tmp, align 32, !dbg !2241, !tbaa !1718
  store %"class.aie::accum" %1, ptr %retval, align 32, !dbg !2241, !tbaa !1718
  store i32 undef, ptr %i, align 4, !dbg !2242
  call addrspace(1) void @llvm.lifetime.start.p0(i64 4, ptr %i) #22, !dbg !2242
  call addrspace(1) void @llvm.dbg.declare(metadata ptr %i, metadata !2226, metadata !DIExpression()), !dbg !2243
  store i32 0, ptr %i, align 4, !dbg !2243, !tbaa !1755
  br label %for.cond, !dbg !2242

for.cond:                                         ; preds = %for.inc, %entry
  %2 = load i32, ptr %i, align 4, !dbg !2244, !tbaa !1755
  %cmp = icmp ult i32 %2, 1, !dbg !2245
  br i1 %cmp, label %for.body, label %for.cond.cleanup, !dbg !2246

for.cond.cleanup:                                 ; preds = %for.cond
  call addrspace(1) void @llvm.lifetime.end.p0(i64 4, ptr %i) #22, !dbg !2247
  br label %for.end

for.body:                                         ; preds = %for.cond
  store %"class.aie::accum.2" undef, ptr %tmp, align 32, !dbg !2248
  call addrspace(1) void @llvm.lifetime.start.p0(i64 64, ptr %tmp) #22, !dbg !2248
  call addrspace(1) void @llvm.dbg.declare(metadata ptr %tmp, metadata !2230, metadata !DIExpression()), !dbg !2249
  %3 = load ptr, ptr %w, align 4, !dbg !2250, !tbaa !1542
  %call = call addrspace(1) %struct.v16accfloat @_ZL12readincr_v16P13input_cascadeI8accfloatvE(ptr %3) #24, !dbg !2251
  %4 = getelementptr inbounds %struct.v16accfloat, ptr %agg.tmp, i32 0, i32 0, !dbg !2251
  %5 = extractvalue %struct.v16accfloat %call, 0, !dbg !2251
  store %struct.ipd.custom_type.v16acc32.v16acc32 %5, ptr %4, align 32, !dbg !2251
  %6 = load %struct.v16accfloat, ptr %agg.tmp, align 32, !dbg !2251, !tbaa !2252
  call addrspace(1) void @_ZN3aie5accumI8accfloatLj16EEC2E11v16accfloat(ptr nonnull align 32 dereferenceable(64) %custom_type.tmp1, %struct.v16accfloat %6) #24, !dbg !2251
  %7 = load %"class.aie::accum.2", ptr %custom_type.tmp1, align 32, !dbg !2251, !tbaa !2254
  store %"class.aie::accum.2" %7, ptr %tmp, align 32, !dbg !2251, !tbaa !2254
  %8 = load i32, ptr %i, align 4, !dbg !2257, !tbaa !1755
  call addrspace(1) void @llvm.lifetime.start.p0(i64 32, ptr %ref.tmp) #22, !dbg !2259
  %call2 = call addrspace(1) %"class.aie::accum" @_ZNK3aie5accumI8accfloatLj16EE7extractILj8EEENS0_IS1_XT_EEEj(ptr nonnull align 32 dereferenceable(64) %tmp, i32 0) #24, !dbg !2260
  %9 = getelementptr inbounds %"class.aie::accum", ptr %ref.tmp, i32 0, i32 0, !dbg !2260
  %10 = extractvalue %"class.aie::accum" %call2, 0, !dbg !2260
  store %"class.aie::detail::accum_base" %10, ptr %9, align 32, !dbg !2260
  %call3 = call nonnull align 32 dereferenceable(32) addrspace(1) ptr @_ZN3aie5accumI8accfloatLj8EE6insertILj8ES1_EERS2_jRKNS0_IT0_XT_EEE(ptr nonnull align 32 dereferenceable(32) %retval, i32 %8, ptr nonnull align 32 dereferenceable(32) %ref.tmp) #24, !dbg !2261
  call addrspace(1) void @llvm.lifetime.end.p0(i64 32, ptr %ref.tmp) #22, !dbg !2262
  call addrspace(1) void @llvm.lifetime.end.p0(i64 64, ptr %tmp) #22, !dbg !2263
  br label %for.inc, !dbg !2264

for.inc:                                          ; preds = %for.body
  %11 = load i32, ptr %i, align 4, !dbg !2265, !tbaa !1755
  %inc = add i32 %11, 1, !dbg !2265
  store i32 %inc, ptr %i, align 4, !dbg !2265, !tbaa !1755
  br label %for.cond, !dbg !2247, !llvm.loop !2266

for.end:                                          ; preds = %for.cond.cleanup
  call addrspace(1) void @llvm.lifetime.end.p0(i64 4, ptr %w) #22, !dbg !2269
  %12 = load %"class.aie::accum", ptr %retval, align 32, !dbg !2269
  ret %"class.aie::accum" %12, !dbg !2269
}

; Function Attrs: inlinehint mustprogress nounwind
define internal %struct.v16accfloat @_ZL12readincr_v16P13input_cascadeI8accfloatvE(ptr %str) addrspace(1) #5 !dbg !2270 {
entry:
  %retval = alloca %struct.v16accfloat, align 32
  %str.addr = alloca ptr, align 4
  store ptr %str, ptr %str.addr, align 4, !tbaa !1542
  call addrspace(1) void @llvm.dbg.declare(metadata ptr %str.addr, metadata !2275, metadata !DIExpression()), !dbg !2276
  %call = call addrspace(1) %struct.v16accfloat @_Z19get_scd_v16accfloatv() #24, !dbg !2276
  %0 = getelementptr inbounds %struct.v16accfloat, ptr %retval, i32 0, i32 0, !dbg !2276
  %1 = extractvalue %struct.v16accfloat %call, 0, !dbg !2276
  store %struct.ipd.custom_type.v16acc32.v16acc32 %1, ptr %0, align 32, !dbg !2276
  %2 = load %struct.v16accfloat, ptr %retval, align 32, !dbg !2276
  ret %struct.v16accfloat %2, !dbg !2276
}

; Function Attrs: alwaysinline nounwind
define linkonce_odr dso_local void @_ZN3aie5accumI8accfloatLj16EEC2E11v16accfloat(ptr nonnull align 32 dereferenceable(64) %this, %struct.v16accfloat %data.coerce) unnamed_addr addrspace(1) #11 comdat align 2 !dbg !2277 {
entry:
  %data = alloca %struct.v16accfloat, align 32
  %this.addr = alloca ptr, align 4
  store %struct.v16accfloat %data.coerce, ptr %data, align 32
  store ptr %this, ptr %this.addr, align 4, !tbaa !1542
  call addrspace(1) void @llvm.dbg.declare(metadata ptr %this.addr, metadata !2279, metadata !DIExpression()), !dbg !2282
  call addrspace(1) void @llvm.dbg.declare(metadata ptr %data, metadata !2281, metadata !DIExpression()), !dbg !2283
  %this1 = load ptr, ptr %this.addr, align 4
  %0 = load %struct.v16accfloat, ptr %data, align 32, !dbg !2284, !tbaa !2252
  call addrspace(1) void @_ZN3aie6detail10accum_baseILNS0_10AccumClassE2ELj32ELj16EEC2E11v16accfloat(ptr nonnull align 32 dereferenceable(64) %this1, %struct.v16accfloat %0) #24, !dbg !2284
  ret void, !dbg !2285
}

; Function Attrs: alwaysinline mustprogress nounwind
define linkonce_odr dso_local nonnull align 32 dereferenceable(32) ptr @_ZN3aie5accumI8accfloatLj8EE6insertILj8ES1_EERS2_jRKNS0_IT0_XT_EEE(ptr nonnull align 32 dereferenceable(32) %this, i32 %idx, ptr nonnull align 32 dereferenceable(32) %acc) addrspace(1) #6 comdat align 2 !dbg !2286 {
entry:
  %this.addr = alloca ptr, align 4
  %idx.addr = alloca i32, align 4
  %acc.addr = alloca ptr, align 4
  store ptr %this, ptr %this.addr, align 4, !tbaa !1542
  call addrspace(1) void @llvm.dbg.declare(metadata ptr %this.addr, metadata !2295, metadata !DIExpression()), !dbg !2298
  store i32 %idx, ptr %idx.addr, align 4, !tbaa !1755
  call addrspace(1) void @llvm.dbg.declare(metadata ptr %idx.addr, metadata !2296, metadata !DIExpression()), !dbg !2299
  store ptr %acc, ptr %acc.addr, align 4, !tbaa !1542
  call addrspace(1) void @llvm.dbg.declare(metadata ptr %acc.addr, metadata !2297, metadata !DIExpression()), !dbg !2300
  %this1 = load ptr, ptr %this.addr, align 4
  %0 = load i32, ptr %idx.addr, align 4, !dbg !2301, !tbaa !1755
  %1 = load ptr, ptr %acc.addr, align 4, !dbg !2302, !tbaa !1542
  %call = call nonnull align 32 dereferenceable(32) addrspace(1) ptr @_ZN3aie6detail10accum_baseILNS0_10AccumClassE2ELj32ELj8EE6insertILj8ELj32EEERS3_jRKNS1_ILS2_2EXT0_EXT_EEE(ptr nonnull align 32 dereferenceable(32) %this1, i32 %0, ptr nonnull align 32 dereferenceable(32) %1) #24, !dbg !2303
  ret ptr %this1, !dbg !2304
}

; Function Attrs: alwaysinline mustprogress nounwind
define linkonce_odr dso_local %"class.aie::accum" @_ZNK3aie5accumI8accfloatLj16EE7extractILj8EEENS0_IS1_XT_EEEj(ptr nonnull align 32 dereferenceable(64) %this, i32 %idx) addrspace(1) #6 comdat align 2 !dbg !2305 {
entry:
  %this.addr = alloca ptr, align 4
  %idx.addr = alloca i32, align 4
  %custom_type.tmp = alloca %"class.aie::accum", align 32
  %ref.tmp = alloca %"class.aie::detail::accum_base", align 32
  store ptr %this, ptr %this.addr, align 4, !tbaa !1542
  call addrspace(1) void @llvm.dbg.declare(metadata ptr %this.addr, metadata !2310, metadata !DIExpression()), !dbg !2313
  store i32 %idx, ptr %idx.addr, align 4, !tbaa !1755
  call addrspace(1) void @llvm.dbg.declare(metadata ptr %idx.addr, metadata !2312, metadata !DIExpression()), !dbg !2314
  %this1 = load ptr, ptr %this.addr, align 4
  call addrspace(1) void @llvm.lifetime.start.p0(i64 32, ptr %ref.tmp) #22, !dbg !2315
  %0 = load i32, ptr %idx.addr, align 4, !dbg !2316, !tbaa !1755
  %call = call addrspace(1) %"class.aie::detail::accum_base" @_ZNK3aie6detail10accum_baseILNS0_10AccumClassE2ELj32ELj16EE7extractILj8EEENS1_ILS2_2ELj32EXT_EEEj(ptr nonnull align 32 dereferenceable(64) %this1, i32 %0) #24, !dbg !2317
  %1 = getelementptr inbounds %"class.aie::detail::accum_base", ptr %ref.tmp, i32 0, i32 0, !dbg !2317
  %2 = extractvalue %"class.aie::detail::accum_base" %call, 0, !dbg !2317
  store %struct.v8accfloat %2, ptr %1, align 32, !dbg !2317
  call addrspace(1) void @_ZN3aie5accumI8accfloatLj8EEC2ERKNS_6detail10accum_baseILNS3_10AccumClassE2ELj32ELj8EEE(ptr nonnull align 32 dereferenceable(32) %custom_type.tmp, ptr nonnull align 32 dereferenceable(32) %ref.tmp) #24, !dbg !2318
  %3 = load %"class.aie::accum", ptr %custom_type.tmp, align 32, !dbg !2318, !tbaa !1718
  call addrspace(1) void @llvm.lifetime.end.p0(i64 32, ptr %ref.tmp) #22, !dbg !2319
  ret %"class.aie::accum" %3, !dbg !2318
}

; Function Attrs: alwaysinline mustprogress nounwind
define linkonce_odr dso_local %struct.v16accfloat @_Z19get_scd_v16accfloatv() addrspace(1) #6 comdat {
entry:
  %retval = alloca %struct.v16accfloat, align 32
  %call = call addrspace(1) %struct.v16accfloat @_Z19get_scd_v16accfloati(i32 1) #24
  %0 = getelementptr inbounds %struct.v16accfloat, ptr %retval, i32 0, i32 0
  %1 = extractvalue %struct.v16accfloat %call, 0
  store %struct.ipd.custom_type.v16acc32.v16acc32 %1, ptr %0, align 32
  %2 = load %struct.v16accfloat, ptr %retval, align 32
  ret %struct.v16accfloat %2
}

; Function Attrs: alwaysinline mustprogress nounwind
define linkonce_odr dso_local %struct.v16accfloat @_Z19get_scd_v16accfloati(i32 %en) addrspace(1) #6 comdat {
entry:
  %en.addr = alloca i32, align 4
  %custom_type.tmp = alloca %struct.v16accfloat, align 32
  %agg.tmp = alloca %struct.ipd.custom_type.v16acc32.v16acc32, align 32
  store i32 %en, ptr %en.addr, align 4, !tbaa !1755
  %0 = load i32, ptr %en.addr, align 4, !tbaa !1755
  %call = call addrspace(1) %struct.ipd.custom_type.v16acc32.v16acc32 @_Z16get_scd_v16acc32i(i32 %0) #28
  store %struct.ipd.custom_type.v16acc32.v16acc32 %call, ptr %agg.tmp, align 32
  %1 = load %struct.ipd.custom_type.v16acc32.v16acc32, ptr %agg.tmp, align 32, !tbaa !2252
  call addrspace(1) void @_ZN11v16accfloatC2E8v16acc32(ptr nonnull align 32 dereferenceable(64) %custom_type.tmp, %struct.ipd.custom_type.v16acc32.v16acc32 %1) #27
  %2 = load %struct.v16accfloat, ptr %custom_type.tmp, align 32, !tbaa !2252
  ret %struct.v16accfloat %2
}

; Function Attrs: alwaysinline mustprogress nounwind
define linkonce_odr dso_local %struct.ipd.custom_type.v16acc32.v16acc32 @_Z16get_scd_v16acc32i(i32 %en) addrspace(1) #19 comdat {
entry:
  %en.addr = alloca i32, align 4
  %agg.tmp = alloca %struct.ipd.custom_type.v16acc32.v16acc32, align 32
  %agg.tmp1 = alloca %struct.ipd.custom_type.v16acc32.v16acc32, align 32
  %agg.tmp2 = alloca %struct.ipd.custom_type.uint1_t.uint1_t, align 4
  %custom_type.tmp = alloca %struct.ipd.custom_type.uint1_t.uint1_t, align 4
  store i32 %en, ptr %en.addr, align 4, !tbaa !1755
  %0 = load volatile %struct.ipd.custom_type.v16acc32.v16acc32, ptr !register !1506, align 32, !tbaa !2252, !chess_protect_access !2320
  store %struct.ipd.custom_type.v16acc32.v16acc32 %0, ptr %agg.tmp1, align 32, !tbaa !2252
  %1 = load i32, ptr %en.addr, align 4, !tbaa !1755
  call addrspace(1) void @_ZN7uint1_tC2Ei(ptr nonnull align 4 dereferenceable(1) %custom_type.tmp, i32 %1) #24
  %2 = load %struct.ipd.custom_type.uint1_t.uint1_t, ptr %custom_type.tmp, align 4, !tbaa !2321
  store %struct.ipd.custom_type.uint1_t.uint1_t %2, ptr %agg.tmp2, align 4, !tbaa !2321
  %3 = load %struct.ipd.custom_type.v16acc32.v16acc32, ptr %agg.tmp1, align 32, !tbaa !2252
  %4 = load %struct.ipd.custom_type.uint1_t.uint1_t, ptr %agg.tmp2, align 4, !tbaa !2321
  %call = call addrspace(1) %struct.ipd.custom_type.v16acc32.v16acc32 @_ZN12me_primitive8scd_readE8v16acc327uint1_t(%struct.ipd.custom_type.v16acc32.v16acc32 %3, %struct.ipd.custom_type.uint1_t.uint1_t %4) #26
  store %struct.ipd.custom_type.v16acc32.v16acc32 %call, ptr %agg.tmp, align 32
  %5 = load %struct.ipd.custom_type.v16acc32.v16acc32, ptr %agg.tmp, align 32, !tbaa !2252
  %call3 = call addrspace(1) %struct.ipd.custom_type.v16acc32.v16acc32 @_Z15chess_keep_deadI8v16acc32ET_S1_(%struct.ipd.custom_type.v16acc32.v16acc32 noundef %5) #29
  ret %struct.ipd.custom_type.v16acc32.v16acc32 %call3
}

; Function Attrs: alwaysinline nounwind
define linkonce_odr dso_local void @_ZN11v16accfloatC2E8v16acc32(ptr nonnull align 32 dereferenceable(64) %this, %struct.ipd.custom_type.v16acc32.v16acc32 %a0.coerce) unnamed_addr addrspace(1) #16 comdat align 2 {
entry:
  %a0 = alloca %struct.ipd.custom_type.v16acc32.v16acc32, align 32
  %this.addr = alloca ptr, align 4
  %custom_type.tmp = alloca %struct.ipd.custom_type.v16acc32.v16acc32, align 32
  %agg.tmp = alloca %struct.v16accfloat, align 32
  store %struct.ipd.custom_type.v16acc32.v16acc32 %a0.coerce, ptr %a0, align 32
  store ptr %this, ptr %this.addr, align 4, !tbaa !1542
  %this1 = load ptr, ptr %this.addr, align 4
  %mw = getelementptr inbounds %struct.v16accfloat, ptr %this1, i32 0, i32 0
  %0 = load %struct.ipd.custom_type.v16acc32.v16acc32, ptr %custom_type.tmp, align 32, !tbaa !2252
  store %struct.ipd.custom_type.v16acc32.v16acc32 %0, ptr %mw, align 32, !tbaa !2252
  %1 = load %struct.ipd.custom_type.v16acc32.v16acc32, ptr %a0, align 32, !tbaa !2252
  %call = call x86_regcallcc addrspace(1) %struct.v16accfloat @__regcall3__chessintr_v16accfloat_v16accfloat_v16acc32(%struct.ipd.custom_type.v16acc32.v16acc32 %1) #25
  %2 = getelementptr inbounds %struct.v16accfloat, ptr %agg.tmp, i32 0, i32 0
  %3 = extractvalue %struct.v16accfloat %call, 0
  store %struct.ipd.custom_type.v16acc32.v16acc32 %3, ptr %2, align 32
  %4 = load %struct.v16accfloat, ptr %agg.tmp, align 32, !tbaa !2252
  store %struct.v16accfloat %4, ptr %this1, align 32, !tbaa !2252
  ret void
}

; Function Attrs: nounwind memory(inaccessiblemem: readwrite)
declare dso_local %struct.ipd.custom_type.v16acc32.v16acc32 @_Z15chess_keep_deadI8v16acc32ET_S1_(%struct.ipd.custom_type.v16acc32.v16acc32 noundef) addrspace(1) #20

; Function Attrs: alwaysinline mustprogress nounwind
define linkonce_odr dso_local %struct.ipd.custom_type.v16acc32.v16acc32 @_ZN12me_primitive8scd_readE8v16acc327uint1_t(%struct.ipd.custom_type.v16acc32.v16acc32 %a0.coerce, %struct.ipd.custom_type.uint1_t.uint1_t %a1.coerce) addrspace(1) #15 comdat {
entry:
  %a0 = alloca %struct.ipd.custom_type.v16acc32.v16acc32, align 32
  %a1 = alloca %struct.ipd.custom_type.uint1_t.uint1_t, align 4
  store %struct.ipd.custom_type.v16acc32.v16acc32 %a0.coerce, ptr %a0, align 32
  store %struct.ipd.custom_type.uint1_t.uint1_t %a1.coerce, ptr %a1, align 4
  %0 = load %struct.ipd.custom_type.v16acc32.v16acc32, ptr %a0, align 32, !tbaa !2252
  %1 = load %struct.ipd.custom_type.uint1_t.uint1_t, ptr %a1, align 4, !tbaa !2321
  %call = call x86_regcallcc addrspace(1) %struct.ipd.custom_type.v16acc32.v16acc32 @__regcall3__chessintr_v16acc32_scd_read_v16acc32_uint1_t(%struct.ipd.custom_type.v16acc32.v16acc32 %0, %struct.ipd.custom_type.uint1_t.uint1_t %1) #25
  ret %struct.ipd.custom_type.v16acc32.v16acc32 %call
}

; Function Attrs: alwaysinline nounwind
define linkonce_odr dso_local void @_ZN7uint1_tC2Ei(ptr nonnull align 4 dereferenceable(1) %this, i32 %a) unnamed_addr addrspace(1) #11 comdat align 2 {
entry:
  %this.addr = alloca ptr, align 4
  %a.addr = alloca i32, align 4
  store ptr %this, ptr %this.addr, align 4, !tbaa !1542
  store i32 %a, ptr %a.addr, align 4, !tbaa !1755
  %this1 = load ptr, ptr %this.addr, align 4
  store i1 false, ptr %this1, align 4
  %0 = load i32, ptr %a.addr, align 4, !tbaa !1755
  %1 = call addrspace(1) %struct.ipd.custom_type.uint1_t.uint1_t @llvm.chess.init.customint.s_struct.ipd.custom_type.uint1_t.uint1_ts.i32.p1(%struct.ipd.custom_type.uint1_t.uint1_t undef, i32 %0, i32 1, i32 32, i1 true, i32 0, ptr addrspace(1) @__regcall3__chessintr_uint1_t_uint1_t___sint)
  store %struct.ipd.custom_type.uint1_t.uint1_t %1, ptr %this1, align 4
  ret void
}

; Function Attrs: nounwind willreturn memory(none)
declare dso_local x86_regcallcc %struct.ipd.custom_type.v16acc32.v16acc32 @__regcall3__chessintr_v16acc32_scd_read_v16acc32_uint1_t(%struct.ipd.custom_type.v16acc32.v16acc32, %struct.ipd.custom_type.uint1_t.uint1_t) addrspace(1) #14

; Function Attrs: nounwind willreturn memory(none)
declare dso_local x86_regcallcc %struct.ipd.custom_type.uint1_t.uint1_t @__regcall3__chessintr_uint1_t_uint1_t___sint(i32 signext) addrspace(1) #14

; Function Attrs: nounwind willreturn memory(none)
declare %struct.ipd.custom_type.uint1_t.uint1_t @llvm.chess.init.customint.s_struct.ipd.custom_type.uint1_t.uint1_ts.i32.p1(%struct.ipd.custom_type.uint1_t.uint1_t, i32, i32, i32, i1, i32, ptr addrspace(1)) addrspace(1) #7

; Function Attrs: nounwind willreturn memory(none)
declare dso_local x86_regcallcc %struct.v16accfloat @__regcall3__chessintr_v16accfloat_v16accfloat_v16acc32(%struct.ipd.custom_type.v16acc32.v16acc32) addrspace(1) #14

; Function Attrs: alwaysinline mustprogress nounwind
define linkonce_odr dso_local nonnull align 32 dereferenceable(32) ptr @_ZN3aie6detail10accum_baseILNS0_10AccumClassE2ELj32ELj8EE6insertILj8ELj32EEERS3_jRKNS1_ILS2_2EXT0_EXT_EEE(ptr nonnull align 32 dereferenceable(32) %this, i32 %idx, ptr nonnull align 32 dereferenceable(32) %acc) addrspace(1) #6 comdat align 2 !dbg !2323 {
entry:
  %this.addr = alloca ptr, align 4
  %idx.addr = alloca i32, align 4
  %acc.addr = alloca ptr, align 4
  %in_num_subaccums = alloca i32, align 4
  %num_subaccums = alloca i32, align 4
  store ptr %this, ptr %this.addr, align 4, !tbaa !1542
  call addrspace(1) void @llvm.dbg.declare(metadata ptr %this.addr, metadata !2332, metadata !DIExpression()), !dbg !2338
  store i32 %idx, ptr %idx.addr, align 4, !tbaa !1755
  call addrspace(1) void @llvm.dbg.declare(metadata ptr %idx.addr, metadata !2334, metadata !DIExpression()), !dbg !2339
  store ptr %acc, ptr %acc.addr, align 4, !tbaa !1542
  call addrspace(1) void @llvm.dbg.declare(metadata ptr %acc.addr, metadata !2335, metadata !DIExpression()), !dbg !2340
  %this1 = load ptr, ptr %this.addr, align 4
  store i32 undef, ptr %in_num_subaccums, align 4, !dbg !2341
  call addrspace(1) void @llvm.lifetime.start.p0(i64 4, ptr %in_num_subaccums) #22, !dbg !2341
  call addrspace(1) void @llvm.dbg.declare(metadata ptr %in_num_subaccums, metadata !2336, metadata !DIExpression()), !dbg !2342
  store i32 1, ptr %in_num_subaccums, align 4, !dbg !2342, !tbaa !1755
  store i32 undef, ptr %num_subaccums, align 4, !dbg !2343
  call addrspace(1) void @llvm.lifetime.start.p0(i64 4, ptr %num_subaccums) #22, !dbg !2343
  call addrspace(1) void @llvm.dbg.declare(metadata ptr %num_subaccums, metadata !2337, metadata !DIExpression()), !dbg !2344
  store i32 1, ptr %num_subaccums, align 4, !dbg !2344, !tbaa !1755
  %0 = load ptr, ptr %acc.addr, align 4, !dbg !2345, !tbaa !1542
  %data = getelementptr inbounds %"class.aie::detail::accum_base", ptr %0, i32 0, i32 0, !dbg !2348
  %data2 = getelementptr inbounds %"class.aie::detail::accum_base", ptr %this1, i32 0, i32 0, !dbg !2349
  %1 = load %struct.v8accfloat, ptr %data, align 32, !dbg !2350, !tbaa !2351
  store %struct.v8accfloat %1, ptr %data2, align 32, !dbg !2350, !tbaa !2351
  call addrspace(1) void @llvm.lifetime.end.p0(i64 4, ptr %num_subaccums) #22, !dbg !2352
  call addrspace(1) void @llvm.lifetime.end.p0(i64 4, ptr %in_num_subaccums) #22, !dbg !2352
  ret ptr %this1, !dbg !2353
}

; Function Attrs: alwaysinline mustprogress nounwind
define linkonce_odr dso_local %"class.aie::detail::accum_base" @_ZNK3aie6detail10accum_baseILNS0_10AccumClassE2ELj32ELj16EE7extractILj8EEENS1_ILS2_2ELj32EXT_EEEj(ptr nonnull align 32 dereferenceable(64) %this, i32 %idx) addrspace(1) #6 comdat align 2 !dbg !2354 {
entry:
  %this.addr = alloca ptr, align 4
  %idx.addr = alloca i32, align 4
  %fpacc_128b = alloca i8, align 1
  %num_subaccums = alloca i32, align 4
  %num_subaccums_out = alloca i32, align 4
  %elems_per_subaccum = alloca i32, align 4
  %out_elems_per_subaccum = alloca i32, align 4
  %ratio = alloca i32, align 4
  %ret = alloca %"class.aie::detail::accum_base", align 32
  %ref.tmp = alloca %"class.aie::detail::accum_base", align 32
  %agg.tmp = alloca %struct.v8accfloat, align 32
  store ptr %this, ptr %this.addr, align 4, !tbaa !1542
  call addrspace(1) void @llvm.dbg.declare(metadata ptr %this.addr, metadata !2359, metadata !DIExpression()), !dbg !2371
  store i32 %idx, ptr %idx.addr, align 4, !tbaa !1755
  call addrspace(1) void @llvm.dbg.declare(metadata ptr %idx.addr, metadata !2361, metadata !DIExpression()), !dbg !2372
  %this1 = load ptr, ptr %this.addr, align 4
  store i8 undef, ptr %fpacc_128b, align 1, !dbg !2373
  call addrspace(1) void @llvm.lifetime.start.p0(i64 1, ptr %fpacc_128b) #22, !dbg !2373
  call addrspace(1) void @llvm.dbg.declare(metadata ptr %fpacc_128b, metadata !2362, metadata !DIExpression()), !dbg !2374
  store i8 0, ptr %fpacc_128b, align 1, !dbg !2374, !tbaa !2375
  store i32 undef, ptr %num_subaccums, align 4, !dbg !2377
  call addrspace(1) void @llvm.lifetime.start.p0(i64 4, ptr %num_subaccums) #22, !dbg !2377
  call addrspace(1) void @llvm.dbg.declare(metadata ptr %num_subaccums, metadata !2363, metadata !DIExpression()), !dbg !2378
  store i32 1, ptr %num_subaccums, align 4, !dbg !2378, !tbaa !1755
  store i32 undef, ptr %num_subaccums_out, align 4, !dbg !2379
  call addrspace(1) void @llvm.lifetime.start.p0(i64 4, ptr %num_subaccums_out) #22, !dbg !2379
  call addrspace(1) void @llvm.dbg.declare(metadata ptr %num_subaccums_out, metadata !2364, metadata !DIExpression()), !dbg !2380
  store i32 1, ptr %num_subaccums_out, align 4, !dbg !2380, !tbaa !1755
  store i32 undef, ptr %elems_per_subaccum, align 4, !dbg !2381
  call addrspace(1) void @llvm.lifetime.start.p0(i64 4, ptr %elems_per_subaccum) #22, !dbg !2381
  call addrspace(1) void @llvm.dbg.declare(metadata ptr %elems_per_subaccum, metadata !2365, metadata !DIExpression()), !dbg !2382
  store i32 16, ptr %elems_per_subaccum, align 4, !dbg !2382, !tbaa !1755
  store i32 undef, ptr %out_elems_per_subaccum, align 4, !dbg !2383
  call addrspace(1) void @llvm.lifetime.start.p0(i64 4, ptr %out_elems_per_subaccum) #22, !dbg !2383
  call addrspace(1) void @llvm.dbg.declare(metadata ptr %out_elems_per_subaccum, metadata !2368, metadata !DIExpression()), !dbg !2384
  store i32 8, ptr %out_elems_per_subaccum, align 4, !dbg !2384, !tbaa !1755
  store i32 undef, ptr %ratio, align 4, !dbg !2385
  call addrspace(1) void @llvm.lifetime.start.p0(i64 4, ptr %ratio) #22, !dbg !2385
  call addrspace(1) void @llvm.dbg.declare(metadata ptr %ratio, metadata !2369, metadata !DIExpression()), !dbg !2386
  store i32 2, ptr %ratio, align 4, !dbg !2386, !tbaa !1755
  store %"class.aie::detail::accum_base" undef, ptr %ret, align 32, !dbg !2387
  call addrspace(1) void @llvm.lifetime.start.p0(i64 32, ptr %ret) #22, !dbg !2387
  call addrspace(1) void @llvm.dbg.declare(metadata ptr %ret, metadata !2370, metadata !DIExpression()), !dbg !2388
  call addrspace(1) void @_ZN3aie6detail10accum_baseILNS0_10AccumClassE2ELj32ELj8EEC2Ev(ptr nonnull align 32 dereferenceable(32) %ret) #24, !dbg !2388
  call addrspace(1) void @llvm.lifetime.start.p0(i64 32, ptr %ref.tmp) #22, !dbg !2389
  %data = getelementptr inbounds %"class.aie::detail::accum_base.3", ptr %this1, i32 0, i32 0, !dbg !2397
  %0 = load i32, ptr %idx.addr, align 4, !dbg !2398, !tbaa !1755
  %call = call addrspace(1) %struct.v8accfloat @_ZN3aie6detailL13accum_extractILj8E11v16accfloatEEDaRKT0_j(ptr nonnull align 32 dereferenceable(64) %data, i32 %0) #24, !dbg !2389
  %1 = getelementptr inbounds %struct.v8accfloat, ptr %agg.tmp, i32 0, i32 0, !dbg !2389
  %2 = extractvalue %struct.v8accfloat %call, 0, !dbg !2389
  store %struct.ipd.custom_type.v8acc32.v8acc32 %2, ptr %1, align 32, !dbg !2389
  %3 = load %struct.v8accfloat, ptr %agg.tmp, align 32, !dbg !2389, !tbaa !2351
  call addrspace(1) void @_ZN3aie6detail10accum_baseILNS0_10AccumClassE2ELj32ELj8EEC2E10v8accfloat(ptr nonnull align 32 dereferenceable(32) %ref.tmp, %struct.v8accfloat %3) #24, !dbg !2389
  %4 = load %"class.aie::detail::accum_base", ptr %ref.tmp, align 32, !dbg !2399, !tbaa !2400
  store %"class.aie::detail::accum_base" %4, ptr %ret, align 32, !dbg !2399, !tbaa !2400
  call addrspace(1) void @llvm.lifetime.end.p0(i64 32, ptr %ref.tmp) #22, !dbg !2401
  %5 = load %"class.aie::detail::accum_base", ptr %ret, align 32, !dbg !2402, !tbaa !2400
  call addrspace(1) void @llvm.lifetime.end.p0(i64 32, ptr %ret) #22, !dbg !2403
  call addrspace(1) void @llvm.lifetime.end.p0(i64 4, ptr %ratio) #22, !dbg !2403
  call addrspace(1) void @llvm.lifetime.end.p0(i64 4, ptr %out_elems_per_subaccum) #22, !dbg !2403
  call addrspace(1) void @llvm.lifetime.end.p0(i64 4, ptr %elems_per_subaccum) #22, !dbg !2403
  call addrspace(1) void @llvm.lifetime.end.p0(i64 4, ptr %num_subaccums_out) #22, !dbg !2404
  call addrspace(1) void @llvm.lifetime.end.p0(i64 4, ptr %num_subaccums) #22, !dbg !2404
  call addrspace(1) void @llvm.lifetime.end.p0(i64 1, ptr %fpacc_128b) #22, !dbg !2404
  ret %"class.aie::detail::accum_base" %5, !dbg !2402
}

; Function Attrs: alwaysinline nounwind
define linkonce_odr dso_local void @_ZN3aie5accumI8accfloatLj8EEC2ERKNS_6detail10accum_baseILNS3_10AccumClassE2ELj32ELj8EEE(ptr nonnull align 32 dereferenceable(32) %this, ptr nonnull align 32 dereferenceable(32) %a) unnamed_addr addrspace(1) #11 comdat align 2 !dbg !2405 {
entry:
  %this.addr = alloca ptr, align 4
  %a.addr = alloca ptr, align 4
  store ptr %this, ptr %this.addr, align 4, !tbaa !1542
  call addrspace(1) void @llvm.dbg.declare(metadata ptr %this.addr, metadata !2407, metadata !DIExpression()), !dbg !2409
  store ptr %a, ptr %a.addr, align 4, !tbaa !1542
  call addrspace(1) void @llvm.dbg.declare(metadata ptr %a.addr, metadata !2408, metadata !DIExpression()), !dbg !2410
  %this1 = load ptr, ptr %this.addr, align 4
  %0 = load ptr, ptr %a.addr, align 4, !dbg !2411, !tbaa !1542
  %1 = load %"class.aie::detail::accum_base", ptr %0, align 32, !dbg !2412, !tbaa !2400
  store %"class.aie::detail::accum_base" %1, ptr %this1, align 32, !dbg !2412, !tbaa !2400
  ret void, !dbg !2413
}

; Function Attrs: alwaysinline nounwind
define linkonce_odr dso_local void @_ZN3aie6detail10accum_baseILNS0_10AccumClassE2ELj32ELj8EEC2Ev(ptr nonnull align 32 dereferenceable(32) %this) unnamed_addr addrspace(1) #11 comdat align 2 !dbg !2414 {
entry:
  %this.addr = alloca ptr, align 4
  store ptr %this, ptr %this.addr, align 4, !tbaa !1542
  call addrspace(1) void @llvm.dbg.declare(metadata ptr %this.addr, metadata !2416, metadata !DIExpression()), !dbg !2417
  %this1 = load ptr, ptr %this.addr, align 4
  %data = getelementptr inbounds %"class.aie::detail::accum_base", ptr %this1, i32 0, i32 0, !dbg !2418
  %call = call addrspace(1) %struct.v8accfloat @_ZN3aie6detail13accum_storageILNS0_10AccumClassE2ELj32ELj8EE5undefEv() #24, !dbg !2419
  %0 = getelementptr inbounds %struct.v8accfloat, ptr %data, i32 0, i32 0, !dbg !2419
  %1 = extractvalue %struct.v8accfloat %call, 0, !dbg !2419
  store %struct.ipd.custom_type.v8acc32.v8acc32 %1, ptr %0, align 32, !dbg !2419
  ret void, !dbg !2420
}

; Function Attrs: alwaysinline mustprogress nounwind
define internal %struct.v8accfloat @_ZN3aie6detailL13accum_extractILj8E11v16accfloatEEDaRKT0_j(ptr nonnull align 32 dereferenceable(64) %acc, i32 %idx) addrspace(1) #6 !dbg !2421 {
entry:
  %retval = alloca %struct.v8accfloat, align 32
  %acc.addr = alloca ptr, align 4
  %idx.addr = alloca i32, align 4
  store ptr %acc, ptr %acc.addr, align 4, !tbaa !1542
  call addrspace(1) void @llvm.dbg.declare(metadata ptr %acc.addr, metadata !2427, metadata !DIExpression()), !dbg !2431
  store i32 %idx, ptr %idx.addr, align 4, !tbaa !1755
  call addrspace(1) void @llvm.dbg.declare(metadata ptr %idx.addr, metadata !2428, metadata !DIExpression()), !dbg !2432
  %0 = load ptr, ptr %acc.addr, align 4, !dbg !2433, !tbaa !1542
  %1 = load i32, ptr %idx.addr, align 4, !dbg !2434, !tbaa !1755
  %2 = load %struct.v16accfloat, ptr %0, align 32, !dbg !2435, !tbaa !2252
  %call = call addrspace(1) %struct.v8accfloat @_Z18extract_v8accfloat11v16accfloati(%struct.v16accfloat %2, i32 %1) #24, !dbg !2435
  %3 = getelementptr inbounds %struct.v8accfloat, ptr %retval, i32 0, i32 0, !dbg !2435
  %4 = extractvalue %struct.v8accfloat %call, 0, !dbg !2435
  store %struct.ipd.custom_type.v8acc32.v8acc32 %4, ptr %3, align 32, !dbg !2435
  %5 = load %struct.v8accfloat, ptr %retval, align 32, !dbg !2436
  ret %struct.v8accfloat %5, !dbg !2436
}

; Function Attrs: alwaysinline nounwind
define linkonce_odr dso_local void @_ZN3aie6detail10accum_baseILNS0_10AccumClassE2ELj32ELj8EEC2E10v8accfloat(ptr nonnull align 32 dereferenceable(32) %this, %struct.v8accfloat %data.coerce) unnamed_addr addrspace(1) #11 comdat align 2 !dbg !2437 {
entry:
  %data = alloca %struct.v8accfloat, align 32
  %this.addr = alloca ptr, align 4
  store %struct.v8accfloat %data.coerce, ptr %data, align 32
  store ptr %this, ptr %this.addr, align 4, !tbaa !1542
  call addrspace(1) void @llvm.dbg.declare(metadata ptr %this.addr, metadata !2439, metadata !DIExpression()), !dbg !2441
  call addrspace(1) void @llvm.dbg.declare(metadata ptr %data, metadata !2440, metadata !DIExpression()), !dbg !2442
  %this1 = load ptr, ptr %this.addr, align 4
  %data2 = getelementptr inbounds %"class.aie::detail::accum_base", ptr %this1, i32 0, i32 0, !dbg !2443
  %0 = load %struct.v8accfloat, ptr %data, align 32, !dbg !2444, !tbaa !2351
  store %struct.v8accfloat %0, ptr %data2, align 32, !dbg !2444, !tbaa !2351
  ret void, !dbg !2445
}

; Function Attrs: alwaysinline mustprogress nounwind
define linkonce_odr dso_local %struct.v8accfloat @_Z18extract_v8accfloat11v16accfloati(%struct.v16accfloat %a.coerce, i32 %idx) addrspace(1) #6 comdat {
entry:
  %retval = alloca %struct.v8accfloat, align 32
  %a = alloca %struct.v16accfloat, align 32
  %idx.addr = alloca i32, align 4
  store %struct.v16accfloat %a.coerce, ptr %a, align 32
  store i32 %idx, ptr %idx.addr, align 4, !tbaa !1755
  %0 = load i32, ptr %idx.addr, align 4, !tbaa !1755
  %rem = srem i32 %0, 2
  %cmp = icmp eq i32 %rem, 0
  br i1 %cmp, label %if.then, label %if.else

if.then:                                          ; preds = %entry
  %1 = load %struct.v16accfloat, ptr %a, align 32, !tbaa !2252
  %call = call addrspace(1) %struct.v8accfloat @_ZN12me_primitive6ext_blE11v16accfloat(%struct.v16accfloat %1) #26
  %2 = getelementptr inbounds %struct.v8accfloat, ptr %retval, i32 0, i32 0
  %3 = extractvalue %struct.v8accfloat %call, 0
  store %struct.ipd.custom_type.v8acc32.v8acc32 %3, ptr %2, align 32
  br label %return

if.else:                                          ; preds = %entry
  %4 = load %struct.v16accfloat, ptr %a, align 32, !tbaa !2252
  %call1 = call addrspace(1) %struct.v8accfloat @_ZN12me_primitive6ext_bhE11v16accfloat(%struct.v16accfloat %4) #26
  %5 = getelementptr inbounds %struct.v8accfloat, ptr %retval, i32 0, i32 0
  %6 = extractvalue %struct.v8accfloat %call1, 0
  store %struct.ipd.custom_type.v8acc32.v8acc32 %6, ptr %5, align 32
  br label %return

return:                                           ; preds = %if.else, %if.then
  %7 = load %struct.v8accfloat, ptr %retval, align 32
  ret %struct.v8accfloat %7
}

; Function Attrs: alwaysinline mustprogress nounwind
define linkonce_odr dso_local %struct.v8accfloat @_ZN12me_primitive6ext_blE11v16accfloat(%struct.v16accfloat %a0.coerce) addrspace(1) #15 comdat {
entry:
  %retval = alloca %struct.v8accfloat, align 32
  %a0 = alloca %struct.v16accfloat, align 32
  store %struct.v16accfloat %a0.coerce, ptr %a0, align 32
  %0 = load %struct.v16accfloat, ptr %a0, align 32, !tbaa !2252
  %call = call x86_regcallcc addrspace(1) %struct.v8accfloat @__regcall3__chessintr_v8accfloat_ext_bl_v16accfloat(%struct.v16accfloat %0) #25
  %1 = getelementptr inbounds %struct.v8accfloat, ptr %retval, i32 0, i32 0
  %2 = extractvalue %struct.v8accfloat %call, 0
  store %struct.ipd.custom_type.v8acc32.v8acc32 %2, ptr %1, align 32
  %3 = load %struct.v8accfloat, ptr %retval, align 32
  ret %struct.v8accfloat %3
}

; Function Attrs: alwaysinline mustprogress nounwind
define linkonce_odr dso_local %struct.v8accfloat @_ZN12me_primitive6ext_bhE11v16accfloat(%struct.v16accfloat %a0.coerce) addrspace(1) #15 comdat {
entry:
  %retval = alloca %struct.v8accfloat, align 32
  %a0 = alloca %struct.v16accfloat, align 32
  store %struct.v16accfloat %a0.coerce, ptr %a0, align 32
  %0 = load %struct.v16accfloat, ptr %a0, align 32, !tbaa !2252
  %call = call x86_regcallcc addrspace(1) %struct.v8accfloat @__regcall3__chessintr_v8accfloat_ext_bh_v16accfloat(%struct.v16accfloat %0) #25
  %1 = getelementptr inbounds %struct.v8accfloat, ptr %retval, i32 0, i32 0
  %2 = extractvalue %struct.v8accfloat %call, 0
  store %struct.ipd.custom_type.v8acc32.v8acc32 %2, ptr %1, align 32
  %3 = load %struct.v8accfloat, ptr %retval, align 32
  ret %struct.v8accfloat %3
}

; Function Attrs: nounwind willreturn memory(none)
declare dso_local x86_regcallcc %struct.v8accfloat @__regcall3__chessintr_v8accfloat_ext_bl_v16accfloat(%struct.v16accfloat) addrspace(1) #14

; Function Attrs: nounwind willreturn memory(none)
declare dso_local x86_regcallcc %struct.v8accfloat @__regcall3__chessintr_v8accfloat_ext_bh_v16accfloat(%struct.v16accfloat) addrspace(1) #14

; Function Attrs: alwaysinline mustprogress nounwind
define linkonce_odr dso_local %"class.aie::accum" @_ZN3aie3macINS_8unary_opINS_5accumI8accfloatLj8EEELNS_9OperationE1EEENS_15vector_elem_refIfLj8EEENS_6vectorIfLj8EEEEENS_17operand_base_typeINS_6detail5utils10remove_allIT_E4typeEE4typeERKSF_T0_RKT1_(ptr nonnull align 32 dereferenceable(32) %acc, %"class.aie::vector_elem_ref" %a.coerce, ptr nonnull align 32 dereferenceable(32) %v) addrspace(1) #6 comdat !dbg !2446 {
entry:
  %retval = alloca %"class.aie::accum", align 32
  %a = alloca %"class.aie::vector_elem_ref", align 4
  %acc.addr = alloca ptr, align 4
  %v.addr = alloca ptr, align 4
  %agg.tmp = alloca %"struct.aie::unary_op.4", align 4
  store %"class.aie::vector_elem_ref" %a.coerce, ptr %a, align 4
  store ptr %acc, ptr %acc.addr, align 4, !tbaa !1542
  call addrspace(1) void @llvm.dbg.declare(metadata ptr %acc.addr, metadata !2460, metadata !DIExpression()), !dbg !2465
  call addrspace(1) void @llvm.dbg.declare(metadata ptr %a, metadata !2461, metadata !DIExpression()), !dbg !2466
  store ptr %v, ptr %v.addr, align 4, !tbaa !1542
  call addrspace(1) void @llvm.dbg.declare(metadata ptr %v.addr, metadata !2462, metadata !DIExpression()), !dbg !2467
  %0 = load ptr, ptr %acc.addr, align 4, !dbg !2468, !tbaa !1542
  %call = call addrspace(1) %"struct.aie::unary_op.4" @_ZN3aie7op_noneINS_15vector_elem_refIfLj8EEEEENS_8unary_opIT_LNS_9OperationE0EEERKS4_(ptr nonnull align 4 dereferenceable(8) %a) #24, !dbg !2473
  %1 = getelementptr inbounds %"struct.aie::unary_op.4", ptr %agg.tmp, i32 0, i32 0, !dbg !2473
  %2 = extractvalue %"struct.aie::unary_op.4" %call, 0, !dbg !2473
  store %"struct.aie::unary_op_common.5" %2, ptr %1, align 4, !dbg !2473
  %3 = load ptr, ptr %v.addr, align 4, !dbg !2474, !tbaa !1542
  %4 = load %"struct.aie::unary_op.4", ptr %agg.tmp, align 4, !dbg !2475, !tbaa !2476
  %call1 = call addrspace(1) %"class.aie::accum" @_ZN3aie3macINS_8unary_opINS_5accumI8accfloatLj8EEELNS_9OperationE1EEENS1_INS_15vector_elem_refIfLj8EEELS5_0EEENS_6vectorIfLj8EEEEENS_17operand_base_typeINS_6detail5utils10remove_allIT_E4typeEE4typeERKSG_T0_RKT1_(ptr nonnull align 32 dereferenceable(32) %0, %"struct.aie::unary_op.4" %4, ptr nonnull align 32 dereferenceable(32) %3) #24, !dbg !2475
  %5 = getelementptr inbounds %"class.aie::accum", ptr %retval, i32 0, i32 0, !dbg !2475
  %6 = extractvalue %"class.aie::accum" %call1, 0, !dbg !2475
  store %"class.aie::detail::accum_base" %6, ptr %5, align 32, !dbg !2475
  %7 = load %"class.aie::accum", ptr %retval, align 32, !dbg !2479
  ret %"class.aie::accum" %7, !dbg !2479
}

; Function Attrs: alwaysinline mustprogress nounwind
define linkonce_odr dso_local %"struct.aie::unary_op" @_ZN3aie6op_addINS_5accumI8accfloatLj8EEEEENS_8unary_opIT_LNS_9OperationE1EEERKS5_(ptr nonnull align 32 dereferenceable(32) %acc) addrspace(1) #6 comdat !dbg !2480 {
entry:
  %retval = alloca %"struct.aie::unary_op", align 32
  %acc.addr = alloca ptr, align 4
  store ptr %acc, ptr %acc.addr, align 4, !tbaa !1542
  call addrspace(1) void @llvm.dbg.declare(metadata ptr %acc.addr, metadata !2484, metadata !DIExpression()), !dbg !2486
  %0 = load ptr, ptr %acc.addr, align 4, !dbg !2487, !tbaa !1542
  %1 = load %"class.aie::accum", ptr %0, align 32, !dbg !2488, !tbaa !1718
  call addrspace(1) void @_ZN3aie8unary_opINS_5accumI8accfloatLj8EEELNS_9OperationE1EECI2NS_15unary_op_commonIS3_LS4_1EEEES3_(ptr nonnull align 32 dereferenceable(32) %retval, %"class.aie::accum" noundef %1) #24, !dbg !2488
  %2 = load %"struct.aie::unary_op", ptr %retval, align 32, !dbg !2489
  ret %"struct.aie::unary_op" %2, !dbg !2489
}

; Function Attrs: alwaysinline mustprogress nounwind
define linkonce_odr dso_local %"class.aie::accum" @_ZN3aie3macINS_8unary_opINS_5accumI8accfloatLj8EEELNS_9OperationE1EEENS1_INS_15vector_elem_refIfLj8EEELS5_0EEENS_6vectorIfLj8EEEEENS_17operand_base_typeINS_6detail5utils10remove_allIT_E4typeEE4typeERKSG_T0_RKT1_(ptr nonnull align 32 dereferenceable(32) %acc, %"struct.aie::unary_op.4" %a.coerce, ptr nonnull align 32 dereferenceable(32) %v) addrspace(1) #6 comdat !dbg !2490 {
entry:
  %retval = alloca %"class.aie::accum", align 32
  %a = alloca %"struct.aie::unary_op.4", align 4
  %acc.addr = alloca ptr, align 4
  %v.addr = alloca ptr, align 4
  %agg.tmp = alloca %"struct.aie::unary_op.4", align 4
  %ref.tmp = alloca %"struct.aie::unary_op.6", align 32
  store %"struct.aie::unary_op.4" %a.coerce, ptr %a, align 4
  store ptr %acc, ptr %acc.addr, align 4, !tbaa !1542
  call addrspace(1) void @llvm.dbg.declare(metadata ptr %acc.addr, metadata !2494, metadata !DIExpression()), !dbg !2499
  call addrspace(1) void @llvm.dbg.declare(metadata ptr %a, metadata !2495, metadata !DIExpression()), !dbg !2500
  store ptr %v, ptr %v.addr, align 4, !tbaa !1542
  call addrspace(1) void @llvm.dbg.declare(metadata ptr %v.addr, metadata !2496, metadata !DIExpression()), !dbg !2501
  %0 = load ptr, ptr %acc.addr, align 4, !dbg !2502, !tbaa !1542
  %1 = load %"struct.aie::unary_op.4", ptr %a, align 4, !dbg !2508, !tbaa !2476
  store %"struct.aie::unary_op.4" %1, ptr %agg.tmp, align 4, !dbg !2508, !tbaa !2476
  call addrspace(1) void @llvm.lifetime.start.p0(i64 32, ptr %ref.tmp) #22, !dbg !2509
  %2 = load ptr, ptr %v.addr, align 4, !dbg !2510, !tbaa !1542
  %call = call addrspace(1) %"struct.aie::unary_op.6" @_ZN3aie7op_noneINS_6vectorIfLj8EEEEENS_8unary_opIT_LNS_9OperationE0EEERKS4_(ptr nonnull align 32 dereferenceable(32) %2) #24, !dbg !2509
  %3 = getelementptr inbounds %"struct.aie::unary_op.6", ptr %ref.tmp, i32 0, i32 0, !dbg !2509
  %4 = extractvalue %"struct.aie::unary_op.6" %call, 0, !dbg !2509
  store %"struct.aie::unary_op_common.7" %4, ptr %3, align 32, !dbg !2509
  %5 = load %"struct.aie::unary_op.4", ptr %agg.tmp, align 4, !dbg !2511, !tbaa !2476
  %call1 = call addrspace(1) %"class.aie::accum" @_ZN3aie3macINS_8unary_opINS_5accumI8accfloatLj8EEELNS_9OperationE1EEENS1_INS_15vector_elem_refIfLj8EEELS5_0EEENS1_INS_6vectorIfLj8EEELS5_0EEEEENS_17operand_base_typeINS_6detail5utils10remove_allIT_E4typeEE4typeERKSH_T0_RKT1_(ptr nonnull align 32 dereferenceable(32) %0, %"struct.aie::unary_op.4" %5, ptr nonnull align 32 dereferenceable(32) %ref.tmp) #24, !dbg !2511
  %6 = getelementptr inbounds %"class.aie::accum", ptr %retval, i32 0, i32 0, !dbg !2511
  %7 = extractvalue %"class.aie::accum" %call1, 0, !dbg !2511
  store %"class.aie::detail::accum_base" %7, ptr %6, align 32, !dbg !2511
  call addrspace(1) void @llvm.lifetime.end.p0(i64 32, ptr %ref.tmp) #22, !dbg !2512
  %8 = load %"class.aie::accum", ptr %retval, align 32, !dbg !2512
  ret %"class.aie::accum" %8, !dbg !2512
}

; Function Attrs: alwaysinline mustprogress nounwind
define linkonce_odr dso_local %"struct.aie::unary_op.4" @_ZN3aie7op_noneINS_15vector_elem_refIfLj8EEEEENS_8unary_opIT_LNS_9OperationE0EEERKS4_(ptr nonnull align 4 dereferenceable(8) %e) addrspace(1) #6 comdat !dbg !2513 {
entry:
  %retval = alloca %"struct.aie::unary_op.4", align 4
  %e.addr = alloca ptr, align 4
  %agg.tmp = alloca %"class.aie::vector_elem_ref", align 4
  store ptr %e, ptr %e.addr, align 4, !tbaa !1542
  call addrspace(1) void @llvm.dbg.declare(metadata ptr %e.addr, metadata !2517, metadata !DIExpression()), !dbg !2518
  %0 = load ptr, ptr %e.addr, align 4, !dbg !2519, !tbaa !1542
  %1 = load %"class.aie::vector_elem_ref", ptr %0, align 4, !dbg !2519, !tbaa !1815
  store %"class.aie::vector_elem_ref" %1, ptr %agg.tmp, align 4, !dbg !2519, !tbaa !1815
  %2 = load %"class.aie::vector_elem_ref", ptr %agg.tmp, align 4, !dbg !2520, !tbaa !1815
  call addrspace(1) void @_ZN3aie8unary_opINS_15vector_elem_refIfLj8EEELNS_9OperationE0EECI2NS_15unary_op_commonIS2_LS3_0EEEES2_(ptr nonnull align 4 dereferenceable(8) %retval, %"class.aie::vector_elem_ref" noundef %2) #24, !dbg !2520
  %3 = load %"struct.aie::unary_op.4", ptr %retval, align 4, !dbg !2521
  ret %"struct.aie::unary_op.4" %3, !dbg !2521
}

; Function Attrs: alwaysinline mustprogress nounwind
define linkonce_odr dso_local %"class.aie::accum" @_ZN3aie3macINS_8unary_opINS_5accumI8accfloatLj8EEELNS_9OperationE1EEENS1_INS_15vector_elem_refIfLj8EEELS5_0EEENS1_INS_6vectorIfLj8EEELS5_0EEEEENS_17operand_base_typeINS_6detail5utils10remove_allIT_E4typeEE4typeERKSH_T0_RKT1_(ptr nonnull align 32 dereferenceable(32) %acc, %"struct.aie::unary_op.4" %a.coerce, ptr nonnull align 32 dereferenceable(32) %v) addrspace(1) #6 comdat !dbg !2522 {
entry:
  %retval = alloca %"class.aie::accum", align 32
  %a = alloca %"struct.aie::unary_op.4", align 4
  %acc.addr = alloca ptr, align 4
  %v.addr = alloca ptr, align 4
  %Op1 = alloca i32, align 4
  %Op2 = alloca i32, align 4
  %agg.tmp = alloca %"class.aie::vector_elem_const_ref", align 4
  %ref.tmp = alloca %"class.aie::vector_elem_ref", align 4
  %agg.tmp1 = alloca %"struct.aie::unary_op.4", align 4
  %ref.tmp3 = alloca %"class.aie::vector", align 32
  %agg.tmp5 = alloca %"struct.aie::unary_op.6", align 32
  %ref.tmp7 = alloca %"class.aie::accum", align 32
  store %"struct.aie::unary_op.4" %a.coerce, ptr %a, align 4
  store ptr %acc, ptr %acc.addr, align 4, !tbaa !1542
  call addrspace(1) void @llvm.dbg.declare(metadata ptr %acc.addr, metadata !2527, metadata !DIExpression()), !dbg !2544
  call addrspace(1) void @llvm.dbg.declare(metadata ptr %a, metadata !2528, metadata !DIExpression()), !dbg !2545
  store ptr %v, ptr %v.addr, align 4, !tbaa !1542
  call addrspace(1) void @llvm.dbg.declare(metadata ptr %v.addr, metadata !2529, metadata !DIExpression()), !dbg !2546
  store i32 undef, ptr %Op1, align 4, !dbg !2547
  call addrspace(1) void @llvm.lifetime.start.p0(i64 4, ptr %Op1) #22, !dbg !2547
  call addrspace(1) void @llvm.dbg.declare(metadata ptr %Op1, metadata !2530, metadata !DIExpression()), !dbg !2548
  store i32 0, ptr %Op1, align 4, !dbg !2548, !tbaa !2549
  store i32 undef, ptr %Op2, align 4, !dbg !2551
  call addrspace(1) void @llvm.lifetime.start.p0(i64 4, ptr %Op2) #22, !dbg !2551
  call addrspace(1) void @llvm.dbg.declare(metadata ptr %Op2, metadata !2541, metadata !DIExpression()), !dbg !2552
  store i32 0, ptr %Op2, align 4, !dbg !2552, !tbaa !2549
  call addrspace(1) void @llvm.lifetime.start.p0(i64 8, ptr %ref.tmp) #22, !dbg !2553
  %call = call addrspace(1) %"class.aie::vector_elem_ref" @_ZNK3aie15unary_op_commonINS_15vector_elem_refIfLj8EEELNS_9OperationE0EE7parent1Ev(ptr nonnull align 4 dereferenceable(8) %a) #24, !dbg !2555
  %0 = getelementptr inbounds %"class.aie::vector_elem_ref", ptr %ref.tmp, i32 0, i32 0, !dbg !2555
  %1 = extractvalue %"class.aie::vector_elem_ref" %call, 0, !dbg !2555
  store ptr %1, ptr %0, align 4, !dbg !2555
  %2 = getelementptr inbounds %"class.aie::vector_elem_ref", ptr %ref.tmp, i32 0, i32 1, !dbg !2555
  %3 = extractvalue %"class.aie::vector_elem_ref" %call, 1, !dbg !2555
  store i32 %3, ptr %2, align 4, !dbg !2555
  call addrspace(1) void @_ZN3aie21vector_elem_const_refIfLj8EEC2ERKNS_15vector_elem_refIfLj8EEE(ptr nonnull align 4 dereferenceable(8) %agg.tmp, ptr nonnull align 4 dereferenceable(8) %ref.tmp) #24, !dbg !2556
  %4 = load %"struct.aie::unary_op.4", ptr %a, align 4, !dbg !2557, !tbaa !2476
  store %"struct.aie::unary_op.4" %4, ptr %agg.tmp1, align 4, !dbg !2557, !tbaa !2476
  %5 = load %"struct.aie::unary_op.4", ptr %agg.tmp1, align 4, !dbg !2558, !tbaa !2476
  %call2 = call zeroext addrspace(1) i1 @_ZN3aie6detail12get_mul_signINS_8unary_opINS_15vector_elem_refIfLj8EEELNS_9OperationE0EEEEEbT_(%"struct.aie::unary_op.4" %5) #24, !dbg !2558
  call addrspace(1) void @llvm.lifetime.start.p0(i64 32, ptr %ref.tmp3) #22, !dbg !2559
  %6 = load ptr, ptr %v.addr, align 4, !dbg !2559, !tbaa !1542
  %call4 = call addrspace(1) %"class.aie::vector" @_ZNK3aie15unary_op_commonINS_6vectorIfLj8EEELNS_9OperationE0EE7parent1Ev(ptr nonnull align 32 dereferenceable(32) %6) #24, !dbg !2560
  %7 = getelementptr inbounds %"class.aie::vector", ptr %ref.tmp3, i32 0, i32 0, !dbg !2560
  %8 = extractvalue %"class.aie::vector" %call4, 0, !dbg !2560
  store %"class.aie::detail::vector_base" %8, ptr %7, align 32, !dbg !2560
  %9 = load ptr, ptr %v.addr, align 4, !dbg !2561, !tbaa !1542
  %10 = load %"struct.aie::unary_op.6", ptr %9, align 32, !dbg !2561, !tbaa !2562
  store %"struct.aie::unary_op.6" %10, ptr %agg.tmp5, align 32, !dbg !2561, !tbaa !2562
  %11 = load %"struct.aie::unary_op.6", ptr %agg.tmp5, align 32, !dbg !2565, !tbaa !2562
  %call6 = call zeroext addrspace(1) i1 @_ZN3aie6detail12get_mul_signINS_8unary_opINS_6vectorIfLj8EEELNS_9OperationE0EEEEEbT_(%"struct.aie::unary_op.6" %11) #24, !dbg !2565
  call addrspace(1) void @llvm.lifetime.start.p0(i64 32, ptr %ref.tmp7) #22, !dbg !2566
  %12 = load ptr, ptr %acc.addr, align 4, !dbg !2566, !tbaa !1542
  %call8 = call addrspace(1) %"class.aie::accum" @_ZNK3aie15unary_op_commonINS_5accumI8accfloatLj8EEELNS_9OperationE1EE7parent1Ev(ptr nonnull align 32 dereferenceable(32) %12) #24, !dbg !2567
  %13 = getelementptr inbounds %"class.aie::accum", ptr %ref.tmp7, i32 0, i32 0, !dbg !2567
  %14 = extractvalue %"class.aie::accum" %call8, 0, !dbg !2567
  store %"class.aie::detail::accum_base" %14, ptr %13, align 32, !dbg !2567
  %15 = load %"class.aie::vector_elem_const_ref", ptr %agg.tmp, align 4, !dbg !2568, !tbaa !2569
  %call9 = call addrspace(1) %"class.aie::accum" @_ZN3aie6detail8mul_bitsILNS0_10MulMacroOpE2ELj32ELj32EfLj32EfE3runILj8ELj8EJNS_5accumI8accfloatLj8EEEEEEDaNS_21vector_elem_const_refIfXT_EEEbRKNS_6vectorIfXT0_EEEbDpRKT1_(%"class.aie::vector_elem_const_ref" %15, i1 zeroext %call2, ptr nonnull align 32 dereferenceable(32) %ref.tmp3, i1 zeroext %call6, ptr nonnull align 32 dereferenceable(32) %ref.tmp7) #24, !dbg !2568
  %16 = getelementptr inbounds %"class.aie::accum", ptr %retval, i32 0, i32 0, !dbg !2568
  %17 = extractvalue %"class.aie::accum" %call9, 0, !dbg !2568
  store %"class.aie::detail::accum_base" %17, ptr %16, align 32, !dbg !2568
  call addrspace(1) void @llvm.lifetime.end.p0(i64 32, ptr %ref.tmp7) #22, !dbg !2571
  call addrspace(1) void @llvm.lifetime.end.p0(i64 32, ptr %ref.tmp3) #22, !dbg !2571
  call addrspace(1) void @llvm.lifetime.end.p0(i64 8, ptr %ref.tmp) #22, !dbg !2571
  call addrspace(1) void @llvm.lifetime.end.p0(i64 4, ptr %Op2) #22, !dbg !2572
  call addrspace(1) void @llvm.lifetime.end.p0(i64 4, ptr %Op1) #22, !dbg !2572
  %18 = load %"class.aie::accum", ptr %retval, align 32, !dbg !2573
  ret %"class.aie::accum" %18, !dbg !2573
}

; Function Attrs: alwaysinline mustprogress nounwind
define linkonce_odr dso_local %"struct.aie::unary_op.6" @_ZN3aie7op_noneINS_6vectorIfLj8EEEEENS_8unary_opIT_LNS_9OperationE0EEERKS4_(ptr nonnull align 32 dereferenceable(32) %e) addrspace(1) #6 comdat !dbg !2574 {
entry:
  %retval = alloca %"struct.aie::unary_op.6", align 32
  %e.addr = alloca ptr, align 4
  store ptr %e, ptr %e.addr, align 4, !tbaa !1542
  call addrspace(1) void @llvm.dbg.declare(metadata ptr %e.addr, metadata !2578, metadata !DIExpression()), !dbg !2579
  %0 = load ptr, ptr %e.addr, align 4, !dbg !2580, !tbaa !1542
  %1 = load %"class.aie::vector", ptr %0, align 32, !dbg !2581, !tbaa !1704
  call addrspace(1) void @_ZN3aie8unary_opINS_6vectorIfLj8EEELNS_9OperationE0EECI2NS_15unary_op_commonIS2_LS3_0EEEES2_(ptr nonnull align 32 dereferenceable(32) %retval, %"class.aie::vector" noundef %1) #24, !dbg !2581
  %2 = load %"struct.aie::unary_op.6", ptr %retval, align 32, !dbg !2582
  ret %"struct.aie::unary_op.6" %2, !dbg !2582
}

; Function Attrs: alwaysinline mustprogress nounwind
define linkonce_odr dso_local %"class.aie::accum" @_ZN3aie6detail8mul_bitsILNS0_10MulMacroOpE2ELj32ELj32EfLj32EfE3runILj8ELj8EJNS_5accumI8accfloatLj8EEEEEEDaNS_21vector_elem_const_refIfXT_EEEbRKNS_6vectorIfXT0_EEEbDpRKT1_(%"class.aie::vector_elem_const_ref" %a.coerce, i1 zeroext %a_sign, ptr nonnull align 32 dereferenceable(32) %v, i1 zeroext %v_sign, ptr nonnull align 32 dereferenceable(32) %acc) addrspace(1) #6 comdat align 2 !dbg !2583 {
entry:
  %retval = alloca %"class.aie::accum", align 32
  %a = alloca %"class.aie::vector_elem_const_ref", align 4
  %a_sign.addr = alloca i8, align 1
  %v.addr = alloca ptr, align 4
  %v_sign.addr = alloca i8, align 1
  %acc.addr = alloca ptr, align 4
  store %"class.aie::vector_elem_const_ref" %a.coerce, ptr %a, align 4
  call addrspace(1) void @llvm.dbg.declare(metadata ptr %a, metadata !2607, metadata !DIExpression()), !dbg !2612
  %frombool = zext i1 %a_sign to i8
  store i8 %frombool, ptr %a_sign.addr, align 1, !tbaa !2375
  call addrspace(1) void @llvm.dbg.declare(metadata ptr %a_sign.addr, metadata !2608, metadata !DIExpression()), !dbg !2613
  store ptr %v, ptr %v.addr, align 4, !tbaa !1542
  call addrspace(1) void @llvm.dbg.declare(metadata ptr %v.addr, metadata !2609, metadata !DIExpression()), !dbg !2614
  %frombool1 = zext i1 %v_sign to i8
  store i8 %frombool1, ptr %v_sign.addr, align 1, !tbaa !2375
  call addrspace(1) void @llvm.dbg.declare(metadata ptr %v_sign.addr, metadata !2610, metadata !DIExpression()), !dbg !2615
  store ptr %acc, ptr %acc.addr, align 4, !tbaa !1542
  call addrspace(1) void @llvm.dbg.declare(metadata ptr %acc.addr, metadata !2611, metadata !DIExpression()), !dbg !2616
  %call = call noundef addrspace(1) float @_ZNK3aie21vector_elem_const_refIfLj8EEcvfEv(ptr nonnull align 4 dereferenceable(8) %a) #24, !dbg !2617
  %0 = load i8, ptr %a_sign.addr, align 1, !dbg !2618, !tbaa !2375, !range !2619, !noundef !137
  %tobool = trunc i8 %0 to i1, !dbg !2618
  %1 = load ptr, ptr %v.addr, align 4, !dbg !2620, !tbaa !1542
  %2 = load i8, ptr %v_sign.addr, align 1, !dbg !2621, !tbaa !2375, !range !2619, !noundef !137
  %tobool2 = trunc i8 %2 to i1, !dbg !2621
  %3 = load ptr, ptr %acc.addr, align 4, !dbg !2622, !tbaa !1542
  %call3 = call addrspace(1) %"class.aie::accum" @_ZN3aie6detail13mul_bits_implILNS0_10MulMacroOpE2ELj32ELj32EfLj32EfE3runILj8EJNS_5accumI8accfloatLj8EEEEEENS5_IS6_XT_EEEfbRKNS_6vectorIfXT_EEEbDpRKT0_(float %call, i1 zeroext %tobool, ptr nonnull align 32 dereferenceable(32) %1, i1 zeroext %tobool2, ptr nonnull align 32 dereferenceable(32) %3) #24, !dbg !2623
  %4 = getelementptr inbounds %"class.aie::accum", ptr %retval, i32 0, i32 0, !dbg !2623
  %5 = extractvalue %"class.aie::accum" %call3, 0, !dbg !2623
  store %"class.aie::detail::accum_base" %5, ptr %4, align 32, !dbg !2623
  %6 = load %"class.aie::accum", ptr %retval, align 32, !dbg !2624
  ret %"class.aie::accum" %6, !dbg !2624
}

; Function Attrs: alwaysinline mustprogress nounwind
define linkonce_odr dso_local %"class.aie::vector_elem_ref" @_ZNK3aie15unary_op_commonINS_15vector_elem_refIfLj8EEELNS_9OperationE0EE7parent1Ev(ptr nonnull align 4 dereferenceable(8) %this) addrspace(1) #6 comdat align 2 !dbg !2625 {
entry:
  %this.addr = alloca ptr, align 4
  store ptr %this, ptr %this.addr, align 4, !tbaa !1542
  call addrspace(1) void @llvm.dbg.declare(metadata ptr %this.addr, metadata !2632, metadata !DIExpression()), !dbg !2634
  %this1 = load ptr, ptr %this.addr, align 4
  %parent_ = getelementptr inbounds %"struct.aie::unary_op_common.5", ptr %this1, i32 0, i32 0, !dbg !2635
  %0 = load %"class.aie::vector_elem_ref", ptr %parent_, align 4, !dbg !2635, !tbaa !1815
  ret %"class.aie::vector_elem_ref" %0, !dbg !2635
}

; Function Attrs: nounwind
define linkonce_odr dso_local void @_ZN3aie21vector_elem_const_refIfLj8EEC2ERKNS_15vector_elem_refIfLj8EEE(ptr nonnull align 4 dereferenceable(8) %this, ptr nonnull align 4 dereferenceable(8) %ref) unnamed_addr addrspace(1) #8 comdat align 2 !dbg !2637 {
entry:
  %this.addr = alloca ptr, align 4
  %ref.addr = alloca ptr, align 4
  store ptr %this, ptr %this.addr, align 4, !tbaa !1542
  call addrspace(1) void @llvm.dbg.declare(metadata ptr %this.addr, metadata !2639, metadata !DIExpression()), !dbg !2642
  store ptr %ref, ptr %ref.addr, align 4, !tbaa !1542
  call addrspace(1) void @llvm.dbg.declare(metadata ptr %ref.addr, metadata !2641, metadata !DIExpression()), !dbg !2643
  %this1 = load ptr, ptr %this.addr, align 4
  %parent = getelementptr inbounds %"class.aie::vector_elem_const_ref", ptr %this1, i32 0, i32 0, !dbg !2644
  %0 = load ptr, ptr %ref.addr, align 4, !dbg !2645, !tbaa !1542
  %parent2 = getelementptr inbounds %"class.aie::vector_elem_ref", ptr %0, i32 0, i32 0, !dbg !2646
  %1 = load ptr, ptr %parent2, align 4, !dbg !2646, !tbaa !2647
  store ptr %1, ptr %parent, align 4, !dbg !2644, !tbaa !1542
  %offset = getelementptr inbounds %"class.aie::vector_elem_const_ref", ptr %this1, i32 0, i32 1, !dbg !2648
  %2 = load ptr, ptr %ref.addr, align 4, !dbg !2649, !tbaa !1542
  %offset3 = getelementptr inbounds %"class.aie::vector_elem_ref", ptr %2, i32 0, i32 1, !dbg !2650
  %3 = load i32, ptr %offset3, align 4, !dbg !2650, !tbaa !2651
  store i32 %3, ptr %offset, align 4, !dbg !2648, !tbaa !2652
  ret void, !dbg !2653
}

; Function Attrs: alwaysinline mustprogress nounwind
define linkonce_odr dso_local zeroext i1 @_ZN3aie6detail12get_mul_signINS_8unary_opINS_15vector_elem_refIfLj8EEELNS_9OperationE0EEEEEbT_(%"struct.aie::unary_op.4" %v.coerce) addrspace(1) #6 comdat !dbg !2654 {
entry:
  %v = alloca %"struct.aie::unary_op.4", align 4
  store %"struct.aie::unary_op.4" %v.coerce, ptr %v, align 4
  call addrspace(1) void @llvm.dbg.declare(metadata ptr %v, metadata !2658, metadata !DIExpression()), !dbg !2661
  ret i1 true, !dbg !2662
}

; Function Attrs: alwaysinline mustprogress nounwind
define linkonce_odr dso_local %"class.aie::vector" @_ZNK3aie15unary_op_commonINS_6vectorIfLj8EEELNS_9OperationE0EE7parent1Ev(ptr nonnull align 32 dereferenceable(32) %this) addrspace(1) #6 comdat align 2 !dbg !2664 {
entry:
  %this.addr = alloca ptr, align 4
  store ptr %this, ptr %this.addr, align 4, !tbaa !1542
  call addrspace(1) void @llvm.dbg.declare(metadata ptr %this.addr, metadata !2671, metadata !DIExpression()), !dbg !2673
  %this1 = load ptr, ptr %this.addr, align 4
  %parent_ = getelementptr inbounds %"struct.aie::unary_op_common.7", ptr %this1, i32 0, i32 0, !dbg !2674
  %0 = load %"class.aie::vector", ptr %parent_, align 32, !dbg !2674, !tbaa !1704
  ret %"class.aie::vector" %0, !dbg !2674
}

; Function Attrs: alwaysinline mustprogress nounwind
define linkonce_odr dso_local zeroext i1 @_ZN3aie6detail12get_mul_signINS_8unary_opINS_6vectorIfLj8EEELNS_9OperationE0EEEEEbT_(%"struct.aie::unary_op.6" %v.coerce) addrspace(1) #6 comdat !dbg !2676 {
entry:
  %v = alloca %"struct.aie::unary_op.6", align 32
  store %"struct.aie::unary_op.6" %v.coerce, ptr %v, align 32
  call addrspace(1) void @llvm.dbg.declare(metadata ptr %v, metadata !2680, metadata !DIExpression()), !dbg !2683
  ret i1 true, !dbg !2684
}

; Function Attrs: alwaysinline mustprogress nounwind
define linkonce_odr dso_local %"class.aie::accum" @_ZNK3aie15unary_op_commonINS_5accumI8accfloatLj8EEELNS_9OperationE1EE7parent1Ev(ptr nonnull align 32 dereferenceable(32) %this) addrspace(1) #6 comdat align 2 !dbg !2686 {
entry:
  %this.addr = alloca ptr, align 4
  store ptr %this, ptr %this.addr, align 4, !tbaa !1542
  call addrspace(1) void @llvm.dbg.declare(metadata ptr %this.addr, metadata !2693, metadata !DIExpression()), !dbg !2695
  %this1 = load ptr, ptr %this.addr, align 4
  %parent_ = getelementptr inbounds %"struct.aie::unary_op_common", ptr %this1, i32 0, i32 0, !dbg !2696
  %0 = load %"class.aie::accum", ptr %parent_, align 32, !dbg !2696, !tbaa !1718
  ret %"class.aie::accum" %0, !dbg !2696
}

; Function Attrs: alwaysinline mustprogress nounwind
define linkonce_odr dso_local %"class.aie::accum" @_ZN3aie6detail13mul_bits_implILNS0_10MulMacroOpE2ELj32ELj32EfLj32EfE3runILj8EJNS_5accumI8accfloatLj8EEEEEENS5_IS6_XT_EEEfbRKNS_6vectorIfXT_EEEbDpRKT0_(float %a, i1 zeroext %a_sign, ptr nonnull align 32 dereferenceable(32) %v, i1 zeroext %v_sign, ptr nonnull align 32 dereferenceable(32) %acc) addrspace(1) #6 comdat align 2 !dbg !2698 {
entry:
  %retval = alloca %"class.aie::accum", align 32
  %a.addr = alloca float, align 4
  %a_sign.addr = alloca i8, align 1
  %v.addr = alloca ptr, align 4
  %v_sign.addr = alloca i8, align 1
  %acc.addr = alloca ptr, align 4
  %ref.tmp = alloca %"class.aie::vector", align 32
  store float %a, ptr %a.addr, align 4, !tbaa !2713
  call addrspace(1) void @llvm.dbg.declare(metadata ptr %a.addr, metadata !2708, metadata !DIExpression()), !dbg !2715
  %frombool = zext i1 %a_sign to i8
  store i8 %frombool, ptr %a_sign.addr, align 1, !tbaa !2375
  call addrspace(1) void @llvm.dbg.declare(metadata ptr %a_sign.addr, metadata !2709, metadata !DIExpression()), !dbg !2716
  store ptr %v, ptr %v.addr, align 4, !tbaa !1542
  call addrspace(1) void @llvm.dbg.declare(metadata ptr %v.addr, metadata !2710, metadata !DIExpression()), !dbg !2717
  %frombool1 = zext i1 %v_sign to i8
  store i8 %frombool1, ptr %v_sign.addr, align 1, !tbaa !2375
  call addrspace(1) void @llvm.dbg.declare(metadata ptr %v_sign.addr, metadata !2711, metadata !DIExpression()), !dbg !2718
  store ptr %acc, ptr %acc.addr, align 4, !tbaa !1542
  call addrspace(1) void @llvm.dbg.declare(metadata ptr %acc.addr, metadata !2712, metadata !DIExpression()), !dbg !2719
  call addrspace(1) void @llvm.lifetime.start.p0(i64 32, ptr %ref.tmp) #22, !dbg !2720
  %call = call addrspace(1) %"class.aie::vector" @_ZN3aie6detail14broadcast_bitsILj32EfLj8EE3runERKf(ptr nonnull align 4 dereferenceable(4) %a.addr) #24, !dbg !2720
  %0 = getelementptr inbounds %"class.aie::vector", ptr %ref.tmp, i32 0, i32 0, !dbg !2720
  %1 = extractvalue %"class.aie::vector" %call, 0, !dbg !2720
  store %"class.aie::detail::vector_base" %1, ptr %0, align 32, !dbg !2720
  %2 = load i8, ptr %a_sign.addr, align 1, !dbg !2721, !tbaa !2375, !range !2619, !noundef !137
  %tobool = trunc i8 %2 to i1, !dbg !2721
  %3 = load ptr, ptr %v.addr, align 4, !dbg !2722, !tbaa !1542
  %4 = load i8, ptr %v_sign.addr, align 1, !dbg !2723, !tbaa !2375, !range !2619, !noundef !137
  %tobool2 = trunc i8 %4 to i1, !dbg !2723
  %5 = load ptr, ptr %acc.addr, align 4, !dbg !2724, !tbaa !1542
  %call3 = call addrspace(1) %"class.aie::accum" @_ZN3aie6detail13mul_bits_implILNS0_10MulMacroOpE2ELj32ELj32EfLj32EfE3runILj8EJNS_5accumI8accfloatLj8EEEEEENS5_IS6_XT_EEERKNS_6vectorIfXT_EEEbSC_bDpRKT0_(ptr nonnull align 32 dereferenceable(32) %ref.tmp, i1 zeroext %tobool, ptr nonnull align 32 dereferenceable(32) %3, i1 zeroext %tobool2, ptr nonnull align 32 dereferenceable(32) %5) #24, !dbg !2725
  %6 = getelementptr inbounds %"class.aie::accum", ptr %retval, i32 0, i32 0, !dbg !2725
  %7 = extractvalue %"class.aie::accum" %call3, 0, !dbg !2725
  store %"class.aie::detail::accum_base" %7, ptr %6, align 32, !dbg !2725
  call addrspace(1) void @llvm.lifetime.end.p0(i64 32, ptr %ref.tmp) #22, !dbg !2726
  %8 = load %"class.aie::accum", ptr %retval, align 32, !dbg !2726
  ret %"class.aie::accum" %8, !dbg !2726
}

; Function Attrs: mustprogress nounwind
define linkonce_odr dso_local noundef float @_ZNK3aie21vector_elem_const_refIfLj8EEcvfEv(ptr nonnull align 4 dereferenceable(8) %this) addrspace(1) #9 comdat align 2 !dbg !2727 {
entry:
  %this.addr = alloca ptr, align 4
  store ptr %this, ptr %this.addr, align 4, !tbaa !1542
  call addrspace(1) void @llvm.dbg.declare(metadata ptr %this.addr, metadata !2729, metadata !DIExpression()), !dbg !2731
  %this1 = load ptr, ptr %this.addr, align 4
  %call = call noundef addrspace(1) float @_ZNK3aie21vector_elem_const_refIfLj8EE3getEv(ptr nonnull align 4 dereferenceable(8) %this1) #24, !dbg !2732
  ret float %call, !dbg !2733
}

; Function Attrs: alwaysinline mustprogress nounwind
define linkonce_odr dso_local %"class.aie::accum" @_ZN3aie6detail13mul_bits_implILNS0_10MulMacroOpE2ELj32ELj32EfLj32EfE3runILj8EJNS_5accumI8accfloatLj8EEEEEENS5_IS6_XT_EEERKNS_6vectorIfXT_EEEbSC_bDpRKT0_(ptr nonnull align 32 dereferenceable(32) %v1, i1 zeroext %v1_sign, ptr nonnull align 32 dereferenceable(32) %v2, i1 zeroext %v2_sign, ptr nonnull align 32 dereferenceable(32) %acc) addrspace(1) #6 comdat align 2 !dbg !2734 {
entry:
  %retval = alloca %"class.aie::accum", align 32
  %v1.addr = alloca ptr, align 4
  %v1_sign.addr = alloca i8, align 1
  %v2.addr = alloca ptr, align 4
  %v2_sign.addr = alloca i8, align 1
  %acc.addr = alloca ptr, align 4
  %mul_op = alloca %class.anon, align 1
  %num_mul = alloca i32, align 4
  %custom_type.tmp = alloca %"class.aie::accum", align 32
  %ref.tmp = alloca %class.anon.8, align 4
  store ptr %v1, ptr %v1.addr, align 4, !tbaa !1542
  call addrspace(1) void @llvm.dbg.declare(metadata ptr %v1.addr, metadata !2739, metadata !DIExpression()), !dbg !2749
  %frombool = zext i1 %v1_sign to i8
  store i8 %frombool, ptr %v1_sign.addr, align 1, !tbaa !2375
  call addrspace(1) void @llvm.dbg.declare(metadata ptr %v1_sign.addr, metadata !2740, metadata !DIExpression()), !dbg !2750
  store ptr %v2, ptr %v2.addr, align 4, !tbaa !1542
  call addrspace(1) void @llvm.dbg.declare(metadata ptr %v2.addr, metadata !2741, metadata !DIExpression()), !dbg !2751
  %frombool1 = zext i1 %v2_sign to i8
  store i8 %frombool1, ptr %v2_sign.addr, align 1, !tbaa !2375
  call addrspace(1) void @llvm.dbg.declare(metadata ptr %v2_sign.addr, metadata !2742, metadata !DIExpression()), !dbg !2752
  store ptr %acc, ptr %acc.addr, align 4, !tbaa !1542
  call addrspace(1) void @llvm.dbg.declare(metadata ptr %acc.addr, metadata !2743, metadata !DIExpression()), !dbg !2753
  store %class.anon undef, ptr %mul_op, align 1, !dbg !2754
  call addrspace(1) void @llvm.lifetime.start.p0(i64 1, ptr %mul_op) #22, !dbg !2754
  call addrspace(1) void @llvm.dbg.declare(metadata ptr %mul_op, metadata !2744, metadata !DIExpression()), !dbg !2755
  call addrspace(1) void @llvm.memcpy.p0.p0.i32(ptr align 1 %mul_op, ptr align 1 @__const._ZN3aie6detail13mul_bits_implILNS0_10MulMacroOpE2ELj32ELj32EfLj32EfE3runILj8EJNS_5accumI8accfloatLj8EEEEEENS5_IS6_XT_EEERKNS_6vectorIfXT_EEEbSC_bDpRKT0_.mul_op, i32 1, i1 false), !dbg !2755
  store i32 undef, ptr %num_mul, align 4, !dbg !2756
  call addrspace(1) void @llvm.lifetime.start.p0(i64 4, ptr %num_mul) #22, !dbg !2756
  call addrspace(1) void @llvm.dbg.declare(metadata ptr %num_mul, metadata !2747, metadata !DIExpression()), !dbg !2757
  store i32 1, ptr %num_mul, align 4, !dbg !2757, !tbaa !1755
  call addrspace(1) void @llvm.dbg.declare(metadata ptr %retval, metadata !2748, metadata !DIExpression()), !dbg !2758
  call addrspace(1) void @_ZN3aie5accumI8accfloatLj8EEC2Ev(ptr nonnull align 32 dereferenceable(32) %custom_type.tmp) #24, !dbg !2758
  %0 = load %"class.aie::accum", ptr %custom_type.tmp, align 32, !dbg !2758, !tbaa !1718
  store %"class.aie::accum" %0, ptr %retval, align 32, !dbg !2758, !tbaa !1718
  call addrspace(1) void @llvm.lifetime.start.p0(i64 20, ptr %ref.tmp) #22, !dbg !2759
  %1 = getelementptr inbounds %class.anon.8, ptr %ref.tmp, i32 0, i32 0, !dbg !2759
  store ptr %mul_op, ptr %1, align 4, !dbg !2759, !tbaa !1542
  %2 = getelementptr inbounds %class.anon.8, ptr %ref.tmp, i32 0, i32 1, !dbg !2759
  %3 = load ptr, ptr %v1.addr, align 4, !dbg !2760, !tbaa !1542
  store ptr %3, ptr %2, align 4, !dbg !2759, !tbaa !1542
  %4 = getelementptr inbounds %class.anon.8, ptr %ref.tmp, i32 0, i32 2, !dbg !2759
  %5 = load ptr, ptr %v2.addr, align 4, !dbg !2760, !tbaa !1542
  store ptr %5, ptr %4, align 4, !dbg !2759, !tbaa !1542
  %6 = getelementptr inbounds %class.anon.8, ptr %ref.tmp, i32 0, i32 3, !dbg !2759
  %7 = load ptr, ptr %acc.addr, align 4, !dbg !2760, !tbaa !1542
  store ptr %7, ptr %6, align 4, !dbg !2759, !tbaa !1542
  %8 = getelementptr inbounds %class.anon.8, ptr %ref.tmp, i32 0, i32 4, !dbg !2759
  store ptr %retval, ptr %8, align 4, !dbg !2759, !tbaa !1542
  call addrspace(1) void @_ZN3aie6detail5utils12unroll_timesILj1EZNS0_13mul_bits_implILNS0_10MulMacroOpE2ELj32ELj32EfLj32EfE3runILj8EJNS_5accumI8accfloatLj8EEEEEENS7_IS8_XT_EEERKNS_6vectorIfXT_EEEbSE_bDpRKT0_EUlT_E_EEvOT0_(ptr nonnull align 4 dereferenceable(20) %ref.tmp) #24, !dbg !2761
  call addrspace(1) void @llvm.lifetime.end.p0(i64 20, ptr %ref.tmp) #22, !dbg !2761
  call addrspace(1) void @llvm.lifetime.end.p0(i64 4, ptr %num_mul) #22, !dbg !2762
  call addrspace(1) void @llvm.lifetime.end.p0(i64 1, ptr %mul_op) #22, !dbg !2762
  %9 = load %"class.aie::accum", ptr %retval, align 32, !dbg !2762
  ret %"class.aie::accum" %9, !dbg !2762
}

; Function Attrs: mustprogress nounwind
define linkonce_odr dso_local %"class.aie::vector" @_ZN3aie6detail14broadcast_bitsILj32EfLj8EE3runERKf(ptr nonnull align 4 dereferenceable(4) %a) addrspace(1) #9 comdat align 2 !dbg !2763 {
entry:
  %retval = alloca %"class.aie::vector", align 32
  %a.addr = alloca ptr, align 4
  store ptr %a, ptr %a.addr, align 4, !tbaa !1542
  call addrspace(1) void @llvm.dbg.declare(metadata ptr %a.addr, metadata !2772, metadata !DIExpression()), !dbg !2773
  %0 = load ptr, ptr %a.addr, align 4, !dbg !2774, !tbaa !1542
  %call = call addrspace(1) %"class.aie::vector" @_ZN3aie6detail19broadcast_bits_implILj32EfLj8EE3runERKf(ptr nonnull align 4 dereferenceable(4) %0) #24, !dbg !2775
  %1 = getelementptr inbounds %"class.aie::vector", ptr %retval, i32 0, i32 0, !dbg !2775
  %2 = extractvalue %"class.aie::vector" %call, 0, !dbg !2775
  store %"class.aie::detail::vector_base" %2, ptr %1, align 32, !dbg !2775
  %3 = load %"class.aie::vector", ptr %retval, align 32, !dbg !2776
  ret %"class.aie::vector" %3, !dbg !2776
}

; Function Attrs: nocallback nofree nounwind willreturn memory(argmem: readwrite)
declare void @llvm.memcpy.p0.p0.i32(ptr noalias nocapture writeonly, ptr noalias nocapture readonly, i32, i1 immarg) addrspace(1) #21

; Function Attrs: alwaysinline mustprogress nounwind
define linkonce_odr dso_local void @_ZN3aie6detail5utils12unroll_timesILj1EZNS0_13mul_bits_implILNS0_10MulMacroOpE2ELj32ELj32EfLj32EfE3runILj8EJNS_5accumI8accfloatLj8EEEEEENS7_IS8_XT_EEERKNS_6vectorIfXT_EEEbSE_bDpRKT0_EUlT_E_EEvOT0_(ptr nonnull align 4 dereferenceable(20) %fn) addrspace(1) #6 comdat !dbg !2777 {
entry:
  %fn.addr = alloca ptr, align 4
  store ptr %fn, ptr %fn.addr, align 4, !tbaa !1542
  call addrspace(1) void @llvm.dbg.declare(metadata ptr %fn.addr, metadata !2792, metadata !DIExpression()), !dbg !2796
  %0 = load ptr, ptr %fn.addr, align 4, !dbg !2797, !tbaa !1542
  call addrspace(1) void @_ZN3aie6detail5utils10unroll_forIjLj0ELj1ELj1EZNS0_13mul_bits_implILNS0_10MulMacroOpE2ELj32ELj32EfLj32EfE3runILj8EJNS_5accumI8accfloatLj8EEEEEENS7_IS8_XT_EEERKNS_6vectorIfXT_EEEbSE_bDpRKT0_EUlT_E_EEvOT3_(ptr nonnull align 4 dereferenceable(20) %0) #24, !dbg !2798
  ret void, !dbg !2799
}

; Function Attrs: alwaysinline mustprogress nounwind
define linkonce_odr dso_local void @_ZN3aie6detail5utils10unroll_forIjLj0ELj1ELj1EZNS0_13mul_bits_implILNS0_10MulMacroOpE2ELj32ELj32EfLj32EfE3runILj8EJNS_5accumI8accfloatLj8EEEEEENS7_IS8_XT_EEERKNS_6vectorIfXT_EEEbSE_bDpRKT0_EUlT_E_EEvOT3_(ptr nonnull align 4 dereferenceable(20) %fn) addrspace(1) #6 comdat !dbg !2800 {
entry:
  %fn.addr = alloca ptr, align 4
  store ptr %fn, ptr %fn.addr, align 4, !tbaa !1542
  call addrspace(1) void @llvm.dbg.declare(metadata ptr %fn.addr, metadata !2802, metadata !DIExpression()), !dbg !2808
  %0 = load ptr, ptr %fn.addr, align 4, !dbg !2809, !tbaa !1542
  call addrspace(1) void @_ZN3aie6detail5utils17unroll_for_helperIjLj0ELj1ELj0ELj1EE7executeIZNS0_13mul_bits_implILNS0_10MulMacroOpE2ELj32ELj32EfLj32EfE3runILj8EJNS_5accumI8accfloatLj8EEEEEENS9_ISA_XT_EEERKNS_6vectorIfXT_EEEbSG_bDpRKT0_EUlT_E_EEvOSL_(ptr nonnull align 4 dereferenceable(20) %0) #24, !dbg !2810
  ret void, !dbg !2811
}

; Function Attrs: alwaysinline mustprogress nounwind
define linkonce_odr dso_local void @_ZN3aie6detail5utils17unroll_for_helperIjLj0ELj1ELj0ELj1EE7executeIZNS0_13mul_bits_implILNS0_10MulMacroOpE2ELj32ELj32EfLj32EfE3runILj8EJNS_5accumI8accfloatLj8EEEEEENS9_ISA_XT_EEERKNS_6vectorIfXT_EEEbSG_bDpRKT0_EUlT_E_EEvOSL_(ptr nonnull align 4 dereferenceable(20) %fn) addrspace(1) #6 comdat align 2 !dbg !2812 {
entry:
  %fn.addr = alloca ptr, align 4
  %it = alloca %"struct.aie::detail::utils::iteration_dim", align 1
  %agg.tmp = alloca %"struct.aie::detail::utils::iteration_dim", align 1
  %next_it = alloca i32, align 4
  store ptr %fn, ptr %fn.addr, align 4, !tbaa !1542
  call addrspace(1) void @llvm.dbg.declare(metadata ptr %fn.addr, metadata !2819, metadata !DIExpression()), !dbg !2835
  store %"struct.aie::detail::utils::iteration_dim" undef, ptr %it, align 1, !dbg !2836
  call addrspace(1) void @llvm.lifetime.start.p0(i64 1, ptr %it) #22, !dbg !2836
  call addrspace(1) void @llvm.dbg.declare(metadata ptr %it, metadata !2820, metadata !DIExpression()), !dbg !2837
  call addrspace(1) void @llvm.memcpy.p0.p0.i32(ptr align 1 %it, ptr align 1 @__const._ZN3aie6detail5utils17unroll_for_helperIjLj0ELj1ELj0ELj1EE7executeIZNS0_13mul_bits_implILNS0_10MulMacroOpE2ELj32ELj32EfLj32EfE3runILj8EJNS_5accumI8accfloatLj8EEEEEENS9_ISA_XT_EEERKNS_6vectorIfXT_EEEbSG_bDpRKT0_EUlT_E_EEvOSL_.it, i32 1, i1 false), !dbg !2837
  %0 = load ptr, ptr %fn.addr, align 4, !dbg !2838, !tbaa !1542
  call addrspace(1) void @_ZZN3aie6detail13mul_bits_implILNS0_10MulMacroOpE2ELj32ELj32EfLj32EfE3runILj8EJNS_5accumI8accfloatLj8EEEEEENS5_IS6_XT_EEERKNS_6vectorIfXT_EEEbSC_bDpRKT0_ENKUlT_E_clINS0_5utils13iteration_dimIjLj0ELj1ELj0EEEEEDaSH_(ptr nonnull align 4 dereferenceable(20) %0) #24, !dbg !2838
  store i32 undef, ptr %next_it, align 4, !dbg !2840
  call addrspace(1) void @llvm.lifetime.start.p0(i64 4, ptr %next_it) #22, !dbg !2840
  call addrspace(1) void @llvm.dbg.declare(metadata ptr %next_it, metadata !2834, metadata !DIExpression()), !dbg !2841
  store i32 1, ptr %next_it, align 4, !dbg !2841, !tbaa !1755
  %1 = load ptr, ptr %fn.addr, align 4, !dbg !2842, !tbaa !1542
  call addrspace(1) void @_ZN3aie6detail5utils17unroll_for_helperIjLj0ELj1ELj1ELj1EE7executeIZNS0_13mul_bits_implILNS0_10MulMacroOpE2ELj32ELj32EfLj32EfE3runILj8EJNS_5accumI8accfloatLj8EEEEEENS9_ISA_XT_EEERKNS_6vectorIfXT_EEEbSG_bDpRKT0_EUlT_E_EEvOSL_(ptr nonnull align 4 dereferenceable(20) %1) #24, !dbg !2843
  call addrspace(1) void @llvm.lifetime.end.p0(i64 4, ptr %next_it) #22, !dbg !2844
  call addrspace(1) void @llvm.lifetime.end.p0(i64 1, ptr %it) #22, !dbg !2844
  ret void, !dbg !2845
}

; Function Attrs: alwaysinline mustprogress nounwind
define linkonce_odr dso_local void @_ZZN3aie6detail13mul_bits_implILNS0_10MulMacroOpE2ELj32ELj32EfLj32EfE3runILj8EJNS_5accumI8accfloatLj8EEEEEENS5_IS6_XT_EEERKNS_6vectorIfXT_EEEbSC_bDpRKT0_ENKUlT_E_clINS0_5utils13iteration_dimIjLj0ELj1ELj0EEEEEDaSH_(ptr nonnull align 4 dereferenceable(20) %this) addrspace(1) #6 comdat align 2 !dbg !2846 {
entry:
  %idx = alloca %"struct.aie::detail::utils::iteration_dim", align 1
  %this.addr = alloca ptr, align 4
  %tmp = alloca %"class.aie::accum.2", align 32
  %custom_type.tmp = alloca %"class.aie::accum.2", align 32
  %agg.tmp = alloca %struct.v16accfloat, align 32
  %ref.tmp = alloca %"class.aie::vector.0", align 32
  %ref.tmp3 = alloca %"class.aie::vector.0", align 32
  %ref.tmp6 = alloca %"class.aie::accum.2", align 32
  %ref.tmp11 = alloca %"class.aie::accum", align 32
  store ptr %this, ptr %this.addr, align 4, !tbaa !1542
  call addrspace(1) void @llvm.dbg.declare(metadata ptr %this.addr, metadata !2855, metadata !DIExpression()), !dbg !2861
  call addrspace(1) void @llvm.dbg.declare(metadata ptr %idx, metadata !2857, metadata !DIExpression()), !dbg !2862
  %this1 = load ptr, ptr %this.addr, align 4
  store %"class.aie::accum.2" undef, ptr %tmp, align 32, !dbg !2863
  call addrspace(1) void @llvm.lifetime.start.p0(i64 64, ptr %tmp) #22, !dbg !2863
  call addrspace(1) void @llvm.dbg.declare(metadata ptr %tmp, metadata !2858, metadata !DIExpression()), !dbg !2864
  %0 = getelementptr inbounds %class.anon.8, ptr %this1, i32 0, i32 0, !dbg !2865
  %1 = load ptr, ptr %0, align 4, !dbg !2865, !tbaa !2866
  call addrspace(1) void @llvm.lifetime.start.p0(i64 64, ptr %ref.tmp) #22, !dbg !2868
  %2 = getelementptr inbounds %class.anon.8, ptr %this1, i32 0, i32 1, !dbg !2868
  %3 = load ptr, ptr %2, align 4, !dbg !2868, !tbaa !2869
  %call = call noundef addrspace(1) i32 @_ZNK3aie6detail5utils13iteration_dimIjLj0ELj1ELj0EEcvjEv(ptr nonnull align 1 dereferenceable(1) %idx) #24, !dbg !2870
  %call2 = call addrspace(1) %"class.aie::vector.0" @_ZNK3aie6vectorIfLj8EE12grow_extractILj16EEENS0_IfXT_EEEj(ptr nonnull align 32 dereferenceable(32) %3, i32 %call) #24, !dbg !2871
  %4 = getelementptr inbounds %"class.aie::vector.0", ptr %ref.tmp, i32 0, i32 0, !dbg !2871
  %5 = extractvalue %"class.aie::vector.0" %call2, 0, !dbg !2871
  store %"class.aie::detail::vector_base.1" %5, ptr %4, align 32, !dbg !2871
  call addrspace(1) void @llvm.lifetime.start.p0(i64 64, ptr %ref.tmp3) #22, !dbg !2872
  %6 = getelementptr inbounds %class.anon.8, ptr %this1, i32 0, i32 2, !dbg !2872
  %7 = load ptr, ptr %6, align 4, !dbg !2872, !tbaa !2873
  %call4 = call noundef addrspace(1) i32 @_ZNK3aie6detail5utils13iteration_dimIjLj0ELj1ELj0EEcvjEv(ptr nonnull align 1 dereferenceable(1) %idx) #24, !dbg !2874
  %call5 = call addrspace(1) %"class.aie::vector.0" @_ZNK3aie6vectorIfLj8EE12grow_extractILj16EEENS0_IfXT_EEEj(ptr nonnull align 32 dereferenceable(32) %7, i32 %call4) #24, !dbg !2875
  %8 = getelementptr inbounds %"class.aie::vector.0", ptr %ref.tmp3, i32 0, i32 0, !dbg !2875
  %9 = extractvalue %"class.aie::vector.0" %call5, 0, !dbg !2875
  store %"class.aie::detail::vector_base.1" %9, ptr %8, align 32, !dbg !2875
  call addrspace(1) void @llvm.lifetime.start.p0(i64 64, ptr %ref.tmp6) #22, !dbg !2876
  %10 = getelementptr inbounds %class.anon.8, ptr %this1, i32 0, i32 3, !dbg !2876
  %11 = load ptr, ptr %10, align 4, !dbg !2876, !tbaa !2877
  %call7 = call noundef addrspace(1) i32 @_ZNK3aie6detail5utils13iteration_dimIjLj0ELj1ELj0EEcvjEv(ptr nonnull align 1 dereferenceable(1) %idx) #24, !dbg !2878
  %call8 = call addrspace(1) %"class.aie::accum.2" @_ZNK3aie5accumI8accfloatLj8EE12grow_extractILj16EEENS0_IS1_XT_EEEj(ptr nonnull align 32 dereferenceable(32) %11, i32 %call7) #24, !dbg !2879
  %12 = getelementptr inbounds %"class.aie::accum.2", ptr %ref.tmp6, i32 0, i32 0, !dbg !2879
  %13 = extractvalue %"class.aie::accum.2" %call8, 0, !dbg !2879
  store %"class.aie::detail::accum_base.3" %13, ptr %12, align 32, !dbg !2879
  %call9 = call addrspace(1) %struct.v16accfloat @_ZZN3aie6detail13mul_bits_implILNS0_10MulMacroOpE2ELj32ELj32EfLj32EfE10get_mul_opILj8EEEDavENKUlDpOT_E_clIJNS_6vectorIfLj16EEESB_NS_5accumI8accfloatLj16EEEEEEDaS7_(ptr nonnull align 1 dereferenceable(1) %1, ptr nonnull align 32 dereferenceable(64) %ref.tmp, ptr nonnull align 32 dereferenceable(64) %ref.tmp3, ptr nonnull align 32 dereferenceable(64) %ref.tmp6) #24, !dbg !2865
  %14 = getelementptr inbounds %struct.v16accfloat, ptr %agg.tmp, i32 0, i32 0, !dbg !2865
  %15 = extractvalue %struct.v16accfloat %call9, 0, !dbg !2865
  store %struct.ipd.custom_type.v16acc32.v16acc32 %15, ptr %14, align 32, !dbg !2865
  %16 = load %struct.v16accfloat, ptr %agg.tmp, align 32, !dbg !2865, !tbaa !2252
  call addrspace(1) void @_ZN3aie5accumI8accfloatLj16EEC2E11v16accfloat(ptr nonnull align 32 dereferenceable(64) %custom_type.tmp, %struct.v16accfloat %16) #24, !dbg !2865
  %17 = load %"class.aie::accum.2", ptr %custom_type.tmp, align 32, !dbg !2865, !tbaa !2254
  store %"class.aie::accum.2" %17, ptr %tmp, align 32, !dbg !2865, !tbaa !2254
  call addrspace(1) void @llvm.lifetime.end.p0(i64 64, ptr %ref.tmp6) #22, !dbg !2865
  call addrspace(1) void @llvm.lifetime.end.p0(i64 64, ptr %ref.tmp3) #22, !dbg !2865
  call addrspace(1) void @llvm.lifetime.end.p0(i64 64, ptr %ref.tmp) #22, !dbg !2865
  %18 = getelementptr inbounds %class.anon.8, ptr %this1, i32 0, i32 4, !dbg !2880
  %19 = load ptr, ptr %18, align 4, !dbg !2880, !tbaa !2881
  %call10 = call noundef addrspace(1) i32 @_ZNK3aie6detail5utils13iteration_dimIjLj0ELj1ELj0EEcvjEv(ptr nonnull align 1 dereferenceable(1) %idx) #24, !dbg !2882
  call addrspace(1) void @llvm.lifetime.start.p0(i64 32, ptr %ref.tmp11) #22, !dbg !2883
  %call12 = call addrspace(1) %"class.aie::accum" @_ZNK3aie5accumI8accfloatLj16EE7extractILj8EEENS0_IS1_XT_EEEj(ptr nonnull align 32 dereferenceable(64) %tmp, i32 0) #24, !dbg !2884
  %20 = getelementptr inbounds %"class.aie::accum", ptr %ref.tmp11, i32 0, i32 0, !dbg !2884
  %21 = extractvalue %"class.aie::accum" %call12, 0, !dbg !2884
  store %"class.aie::detail::accum_base" %21, ptr %20, align 32, !dbg !2884
  %call13 = call nonnull align 32 dereferenceable(32) addrspace(1) ptr @_ZN3aie5accumI8accfloatLj8EE6insertILj8ES1_EERS2_jRKNS0_IT0_XT_EEE(ptr nonnull align 32 dereferenceable(32) %19, i32 %call10, ptr nonnull align 32 dereferenceable(32) %ref.tmp11) #24, !dbg !2885
  call addrspace(1) void @llvm.lifetime.end.p0(i64 32, ptr %ref.tmp11) #22, !dbg !2880
  call addrspace(1) void @llvm.lifetime.end.p0(i64 64, ptr %tmp) #22, !dbg !2886
  ret void, !dbg !2886
}

; Function Attrs: alwaysinline mustprogress nounwind
define linkonce_odr dso_local void @_ZN3aie6detail5utils17unroll_for_helperIjLj0ELj1ELj1ELj1EE7executeIZNS0_13mul_bits_implILNS0_10MulMacroOpE2ELj32ELj32EfLj32EfE3runILj8EJNS_5accumI8accfloatLj8EEEEEENS9_ISA_XT_EEERKNS_6vectorIfXT_EEEbSG_bDpRKT0_EUlT_E_EEvOSL_(ptr nonnull align 4 dereferenceable(20) %fn) addrspace(1) #6 comdat align 2 !dbg !2887 {
entry:
  %fn.addr = alloca ptr, align 4
  store ptr %fn, ptr %fn.addr, align 4, !tbaa !1542
  call addrspace(1) void @llvm.dbg.declare(metadata ptr %fn.addr, metadata !2893, metadata !DIExpression()), !dbg !2894
  ret void, !dbg !2895
}

; Function Attrs: alwaysinline mustprogress nounwind
define linkonce_odr dso_local %struct.v16accfloat @_ZZN3aie6detail13mul_bits_implILNS0_10MulMacroOpE2ELj32ELj32EfLj32EfE10get_mul_opILj8EEEDavENKUlDpOT_E_clIJNS_6vectorIfLj16EEESB_NS_5accumI8accfloatLj16EEEEEEDaS7_(ptr nonnull align 1 dereferenceable(1) %this, ptr nonnull align 32 dereferenceable(64) %args, ptr nonnull align 32 dereferenceable(64) %args1, ptr nonnull align 32 dereferenceable(64) %args3) addrspace(1) #6 comdat align 2 !dbg !2896 {
entry:
  %retval = alloca %struct.v16accfloat, align 32
  %this.addr = alloca ptr, align 4
  %args.addr = alloca ptr, align 4
  %args.addr2 = alloca ptr, align 4
  %args.addr4 = alloca ptr, align 4
  %agg.tmp = alloca %struct.v16float, align 32
  %agg.tmp6 = alloca %struct.v16float, align 32
  %agg.tmp8 = alloca %struct.v16accfloat, align 32
  store ptr %this, ptr %this.addr, align 4, !tbaa !1542
  call addrspace(1) void @llvm.dbg.declare(metadata ptr %this.addr, metadata !2909, metadata !DIExpression()), !dbg !2914
  store ptr %args, ptr %args.addr, align 4, !tbaa !1542
  call addrspace(1) void @llvm.dbg.declare(metadata ptr %args.addr, metadata !2911, metadata !DIExpression()), !dbg !2915
  store ptr %args1, ptr %args.addr2, align 4, !tbaa !1542
  call addrspace(1) void @llvm.dbg.declare(metadata ptr %args.addr2, metadata !2912, metadata !DIExpression()), !dbg !2915
  store ptr %args3, ptr %args.addr4, align 4, !tbaa !1542
  call addrspace(1) void @llvm.dbg.declare(metadata ptr %args.addr4, metadata !2913, metadata !DIExpression()), !dbg !2915
  %this5 = load ptr, ptr %this.addr, align 4
  %0 = load ptr, ptr %args.addr, align 4, !dbg !2916, !tbaa !1542
  %call = call addrspace(1) %struct.v16float @_ZNK3aie6vectorIfLj16EEcv8v16floatEv(ptr nonnull align 32 dereferenceable(64) %0) #24, !dbg !2916
  %1 = getelementptr inbounds %struct.v16float, ptr %agg.tmp, i32 0, i32 0, !dbg !2916
  %2 = extractvalue %struct.v16float %call, 0, !dbg !2916
  store %struct.ipd.custom_type.v128int4.v128int4 %2, ptr %1, align 32, !dbg !2916
  %3 = load ptr, ptr %args.addr2, align 4, !dbg !2916, !tbaa !1542
  %call7 = call addrspace(1) %struct.v16float @_ZNK3aie6vectorIfLj16EEcv8v16floatEv(ptr nonnull align 32 dereferenceable(64) %3) #24, !dbg !2916
  %4 = getelementptr inbounds %struct.v16float, ptr %agg.tmp6, i32 0, i32 0, !dbg !2916
  %5 = extractvalue %struct.v16float %call7, 0, !dbg !2916
  store %struct.ipd.custom_type.v128int4.v128int4 %5, ptr %4, align 32, !dbg !2916
  %6 = load ptr, ptr %args.addr4, align 4, !dbg !2916, !tbaa !1542
  %call9 = call addrspace(1) %struct.v16accfloat @_ZNK3aie5accumI8accfloatLj16EEcv11v16accfloatEv(ptr nonnull align 32 dereferenceable(64) %6) #24, !dbg !2916
  %7 = getelementptr inbounds %struct.v16accfloat, ptr %agg.tmp8, i32 0, i32 0, !dbg !2916
  %8 = extractvalue %struct.v16accfloat %call9, 0, !dbg !2916
  store %struct.ipd.custom_type.v16acc32.v16acc32 %8, ptr %7, align 32, !dbg !2916
  %9 = load %struct.v16float, ptr %agg.tmp, align 32, !dbg !2917, !tbaa !2099
  %10 = load %struct.v16float, ptr %agg.tmp6, align 32, !dbg !2917, !tbaa !2099
  %11 = load %struct.v16accfloat, ptr %agg.tmp8, align 32, !dbg !2917, !tbaa !2252
  %call10 = call addrspace(1) %struct.v16accfloat @_Z11mac_elem_168v16floatS_11v16accfloat(%struct.v16float %9, %struct.v16float %10, %struct.v16accfloat %11) #24, !dbg !2917
  %12 = getelementptr inbounds %struct.v16accfloat, ptr %retval, i32 0, i32 0, !dbg !2917
  %13 = extractvalue %struct.v16accfloat %call10, 0, !dbg !2917
  store %struct.ipd.custom_type.v16acc32.v16acc32 %13, ptr %12, align 32, !dbg !2917
  %14 = load %struct.v16accfloat, ptr %retval, align 32, !dbg !2918
  ret %struct.v16accfloat %14, !dbg !2918
}

; Function Attrs: alwaysinline mustprogress nounwind
define linkonce_odr dso_local %"class.aie::vector.0" @_ZNK3aie6vectorIfLj8EE12grow_extractILj16EEENS0_IfXT_EEEj(ptr nonnull align 32 dereferenceable(32) %this, i32 %idx) addrspace(1) #6 comdat align 2 !dbg !2919 {
entry:
  %retval = alloca %"class.aie::vector.0", align 32
  %this.addr = alloca ptr, align 4
  %idx.addr = alloca i32, align 4
  store ptr %this, ptr %this.addr, align 4, !tbaa !1542
  call addrspace(1) void @llvm.dbg.declare(metadata ptr %this.addr, metadata !2926, metadata !DIExpression()), !dbg !2929
  store i32 %idx, ptr %idx.addr, align 4, !tbaa !1755
  call addrspace(1) void @llvm.dbg.declare(metadata ptr %idx.addr, metadata !2928, metadata !DIExpression()), !dbg !2930
  %this1 = load ptr, ptr %this.addr, align 4
  %call = call addrspace(1) %"class.aie::vector.0" @_ZNK3aie6vectorIfLj8EE4growILj16EEENS0_IfXT_EEEj(ptr nonnull align 32 dereferenceable(32) %this1, i32 0) #24, !dbg !2931
  %0 = getelementptr inbounds %"class.aie::vector.0", ptr %retval, i32 0, i32 0, !dbg !2931
  %1 = extractvalue %"class.aie::vector.0" %call, 0, !dbg !2931
  store %"class.aie::detail::vector_base.1" %1, ptr %0, align 32, !dbg !2931
  %2 = load %"class.aie::vector.0", ptr %retval, align 32, !dbg !2933
  ret %"class.aie::vector.0" %2, !dbg !2933
}

; Function Attrs: mustprogress nounwind
define linkonce_odr dso_local noundef i32 @_ZNK3aie6detail5utils13iteration_dimIjLj0ELj1ELj0EEcvjEv(ptr nonnull align 1 dereferenceable(1) %this) addrspace(1) #9 comdat align 2 !dbg !2934 {
entry:
  %this.addr = alloca ptr, align 4
  store ptr %this, ptr %this.addr, align 4, !tbaa !1542
  call addrspace(1) void @llvm.dbg.declare(metadata ptr %this.addr, metadata !2936, metadata !DIExpression()), !dbg !2938
  %this1 = load ptr, ptr %this.addr, align 4
  %call = call noundef addrspace(1) i32 @_ZNK3aie6detail5utils13iteration_dimIjLj0ELj1ELj0EE7currentEv(ptr nonnull align 1 dereferenceable(1) %this1) #24, !dbg !2939
  ret i32 %call, !dbg !2940
}

; Function Attrs: alwaysinline mustprogress nounwind
define linkonce_odr dso_local %"class.aie::accum.2" @_ZNK3aie5accumI8accfloatLj8EE12grow_extractILj16EEENS0_IS1_XT_EEEj(ptr nonnull align 32 dereferenceable(32) %this, i32 %idx) addrspace(1) #6 comdat align 2 !dbg !2941 {
entry:
  %retval = alloca %"class.aie::accum.2", align 32
  %this.addr = alloca ptr, align 4
  %idx.addr = alloca i32, align 4
  store ptr %this, ptr %this.addr, align 4, !tbaa !1542
  call addrspace(1) void @llvm.dbg.declare(metadata ptr %this.addr, metadata !2946, metadata !DIExpression()), !dbg !2949
  store i32 %idx, ptr %idx.addr, align 4, !tbaa !1755
  call addrspace(1) void @llvm.dbg.declare(metadata ptr %idx.addr, metadata !2948, metadata !DIExpression()), !dbg !2950
  %this1 = load ptr, ptr %this.addr, align 4
  %call = call addrspace(1) %"class.aie::accum.2" @_ZNK3aie5accumI8accfloatLj8EE4growILj16EEENS0_IS1_XT_EEEv(ptr nonnull align 32 dereferenceable(32) %this1) #24, !dbg !2951
  %0 = getelementptr inbounds %"class.aie::accum.2", ptr %retval, i32 0, i32 0, !dbg !2951
  %1 = extractvalue %"class.aie::accum.2" %call, 0, !dbg !2951
  store %"class.aie::detail::accum_base.3" %1, ptr %0, align 32, !dbg !2951
  %2 = load %"class.aie::accum.2", ptr %retval, align 32, !dbg !2953
  ret %"class.aie::accum.2" %2, !dbg !2953
}

; Function Attrs: alwaysinline mustprogress nounwind
define linkonce_odr dso_local %struct.v16accfloat @_Z11mac_elem_168v16floatS_11v16accfloat(%struct.v16float %v1.coerce, %struct.v16float %v2.coerce, %struct.v16accfloat %acc.coerce) addrspace(1) #6 comdat !dbg !2954 {
entry:
  %retval = alloca %struct.v16accfloat, align 32
  %v1 = alloca %struct.v16float, align 32
  %v2 = alloca %struct.v16float, align 32
  %acc = alloca %struct.v16accfloat, align 32
  store %struct.v16float %v1.coerce, ptr %v1, align 32
  store %struct.v16float %v2.coerce, ptr %v2, align 32
  store %struct.v16accfloat %acc.coerce, ptr %acc, align 32
  call addrspace(1) void @llvm.dbg.declare(metadata ptr %v1, metadata !2959, metadata !DIExpression()), !dbg !2962
  call addrspace(1) void @llvm.dbg.declare(metadata ptr %v2, metadata !2960, metadata !DIExpression()), !dbg !2962
  call addrspace(1) void @llvm.dbg.declare(metadata ptr %acc, metadata !2961, metadata !DIExpression()), !dbg !2962
  %0 = load %struct.v16float, ptr %v1, align 32, !dbg !2962, !tbaa !2099
  %1 = load %struct.v16float, ptr %v2, align 32, !dbg !2962, !tbaa !2099
  %2 = load %struct.v16accfloat, ptr %acc, align 32, !dbg !2962, !tbaa !2252
  %call = call addrspace(1) %struct.v16accfloat @_Z25mac_elem_16_accuracy_fast8v16floatS_11v16accfloatiii(%struct.v16float %0, %struct.v16float %1, %struct.v16accfloat %2, i32 0, i32 0, i32 0) #24, !dbg !2962
  %3 = getelementptr inbounds %struct.v16accfloat, ptr %retval, i32 0, i32 0, !dbg !2962
  %4 = extractvalue %struct.v16accfloat %call, 0, !dbg !2962
  store %struct.ipd.custom_type.v16acc32.v16acc32 %4, ptr %3, align 32, !dbg !2962
  %5 = load %struct.v16accfloat, ptr %retval, align 32, !dbg !2962
  ret %struct.v16accfloat %5, !dbg !2962
}

; Function Attrs: alwaysinline mustprogress nounwind
define linkonce_odr dso_local %struct.v16float @_ZNK3aie6vectorIfLj16EEcv8v16floatEv(ptr nonnull align 32 dereferenceable(64) %this) addrspace(1) #6 comdat align 2 !dbg !2963 {
entry:
  %retval = alloca %struct.v16float, align 32
  %this.addr = alloca ptr, align 4
  store ptr %this, ptr %this.addr, align 4, !tbaa !1542
  call addrspace(1) void @llvm.dbg.declare(metadata ptr %this.addr, metadata !2965, metadata !DIExpression()), !dbg !2966
  %this1 = load ptr, ptr %this.addr, align 4
  %call = call addrspace(1) %struct.v16float @_ZNK3aie6vectorIfLj16EE9to_nativeEv(ptr nonnull align 32 dereferenceable(64) %this1) #24, !dbg !2967
  %0 = getelementptr inbounds %struct.v16float, ptr %retval, i32 0, i32 0, !dbg !2967
  %1 = extractvalue %struct.v16float %call, 0, !dbg !2967
  store %struct.ipd.custom_type.v128int4.v128int4 %1, ptr %0, align 32, !dbg !2967
  %2 = load %struct.v16float, ptr %retval, align 32, !dbg !2968
  ret %struct.v16float %2, !dbg !2968
}

; Function Attrs: alwaysinline mustprogress nounwind
define linkonce_odr dso_local %struct.v16accfloat @_ZNK3aie5accumI8accfloatLj16EEcv11v16accfloatEv(ptr nonnull align 32 dereferenceable(64) %this) addrspace(1) #6 comdat align 2 !dbg !2969 {
entry:
  %retval = alloca %struct.v16accfloat, align 32
  %this.addr = alloca ptr, align 4
  store ptr %this, ptr %this.addr, align 4, !tbaa !1542
  call addrspace(1) void @llvm.dbg.declare(metadata ptr %this.addr, metadata !2971, metadata !DIExpression()), !dbg !2972
  %this1 = load ptr, ptr %this.addr, align 4
  %call = call addrspace(1) %struct.v16accfloat @_ZNK3aie6detail10accum_baseILNS0_10AccumClassE2ELj32ELj16EEcv11v16accfloatEv(ptr nonnull align 32 dereferenceable(64) %this1) #24, !dbg !2973
  %0 = getelementptr inbounds %struct.v16accfloat, ptr %retval, i32 0, i32 0, !dbg !2973
  %1 = extractvalue %struct.v16accfloat %call, 0, !dbg !2973
  store %struct.ipd.custom_type.v16acc32.v16acc32 %1, ptr %0, align 32, !dbg !2973
  %2 = load %struct.v16accfloat, ptr %retval, align 32, !dbg !2974
  ret %struct.v16accfloat %2, !dbg !2974
}

; Function Attrs: alwaysinline mustprogress nounwind
define linkonce_odr dso_local %struct.v16accfloat @_Z25mac_elem_16_accuracy_fast8v16floatS_11v16accfloatiii(%struct.v16float %v1.coerce, %struct.v16float %v2.coerce, %struct.v16accfloat %acc.coerce, i32 %zero_acc, i32 %sub_mul, i32 %sub_acc1) addrspace(1) #6 comdat !dbg !2975 {
entry:
  %retval = alloca %struct.v16accfloat, align 32
  %v1 = alloca %struct.v16float, align 32
  %v2 = alloca %struct.v16float, align 32
  %acc = alloca %struct.v16accfloat, align 32
  %zero_acc.addr = alloca i32, align 4
  %sub_mul.addr = alloca i32, align 4
  %sub_acc1.addr = alloca i32, align 4
  store %struct.v16float %v1.coerce, ptr %v1, align 32
  store %struct.v16float %v2.coerce, ptr %v2, align 32
  store %struct.v16accfloat %acc.coerce, ptr %acc, align 32
  call addrspace(1) void @llvm.dbg.declare(metadata ptr %v1, metadata !2979, metadata !DIExpression()), !dbg !2986
  call addrspace(1) void @llvm.dbg.declare(metadata ptr %v2, metadata !2980, metadata !DIExpression()), !dbg !2986
  call addrspace(1) void @llvm.dbg.declare(metadata ptr %acc, metadata !2981, metadata !DIExpression()), !dbg !2986
  store i32 %zero_acc, ptr %zero_acc.addr, align 4, !tbaa !1755
  call addrspace(1) void @llvm.dbg.declare(metadata ptr %zero_acc.addr, metadata !2982, metadata !DIExpression()), !dbg !2986
  store i32 %sub_mul, ptr %sub_mul.addr, align 4, !tbaa !1755
  call addrspace(1) void @llvm.dbg.declare(metadata ptr %sub_mul.addr, metadata !2983, metadata !DIExpression()), !dbg !2986
  store i32 %sub_acc1, ptr %sub_acc1.addr, align 4, !tbaa !1755
  call addrspace(1) void @llvm.dbg.declare(metadata ptr %sub_acc1.addr, metadata !2984, metadata !DIExpression()), !dbg !2986
  call addrspace(1) void @llvm.dbg.declare(metadata ptr %retval, metadata !2985, metadata !DIExpression()), !dbg !2986
  %0 = load i32, ptr %zero_acc.addr, align 4, !dbg !2986, !tbaa !1755
  %1 = load i32, ptr %sub_mul.addr, align 4, !dbg !2986, !tbaa !1755
  %2 = load i32, ptr %sub_acc1.addr, align 4, !dbg !2986, !tbaa !1755
  %3 = load %struct.v16float, ptr %v1, align 32, !dbg !2986, !tbaa !2099
  %4 = load %struct.v16float, ptr %v2, align 32, !dbg !2986, !tbaa !2099
  %5 = load %struct.v16accfloat, ptr %acc, align 32, !dbg !2986, !tbaa !2252
  %call = call addrspace(1) %struct.v16accfloat @_ZN9me_detail31mac_elem_16_accuracy_fast_innerE8v16floatS0_11v16accfloatiii(%struct.v16float %3, %struct.v16float %4, %struct.v16accfloat %5, i32 %0, i32 %1, i32 %2) #24, !dbg !2986
  %6 = getelementptr inbounds %struct.v16accfloat, ptr %retval, i32 0, i32 0, !dbg !2986
  %7 = extractvalue %struct.v16accfloat %call, 0, !dbg !2986
  store %struct.ipd.custom_type.v16acc32.v16acc32 %7, ptr %6, align 32, !dbg !2986
  %8 = load %struct.v16accfloat, ptr %retval, align 32, !dbg !2986
  ret %struct.v16accfloat %8, !dbg !2986
}

; Function Attrs: alwaysinline mustprogress nounwind
define linkonce_odr dso_local %struct.v16accfloat @_ZN9me_detail31mac_elem_16_accuracy_fast_innerE8v16floatS0_11v16accfloatiii(%struct.v16float %v1.coerce, %struct.v16float %v2.coerce, %struct.v16accfloat %acc.coerce, i32 %zero_acc, i32 %sub_mul, i32 %sub_acc1) addrspace(1) #6 comdat !dbg !2987 {
entry:
  %retval = alloca %struct.v16accfloat, align 32
  %v1 = alloca %struct.v16float, align 32
  %v2 = alloca %struct.v16float, align 32
  %acc = alloca %struct.v16accfloat, align 32
  %zero_acc.addr = alloca i32, align 4
  %sub_mul.addr = alloca i32, align 4
  %sub_acc1.addr = alloca i32, align 4
  %a = alloca %struct.v32bfloat16, align 32
  %b = alloca %struct.v32bfloat16, align 32
  %c = alloca %struct.v32bfloat16, align 32
  %d = alloca %struct.v32bfloat16, align 32
  %e = alloca %struct.v32bfloat16, align 32
  %f = alloca %struct.v32bfloat16, align 32
  %dummy0 = alloca %struct.v32bfloat16, align 32
  %agg.tmp = alloca %struct.v16bfloat16, align 32
  %agg.tmp7 = alloca %struct.v16accfloat, align 32
  %custom_type.tmp = alloca %struct.v16accfloat, align 32
  %agg.tmp10 = alloca %struct.v32bfloat16, align 32
  %acc0 = alloca %struct.v16accfloat, align 32
  %agg.tmp11 = alloca %struct.v16accfloat, align 32
  %custom_type.tmp12 = alloca %struct.v16accfloat, align 32
  %agg.tmp14 = alloca %struct.v16bfloat16, align 32
  %agg.tmp17 = alloca %struct.v32bfloat16, align 32
  %agg.tmp18 = alloca %struct.v16bfloat16, align 32
  %agg.tmp19 = alloca %struct.v16accfloat, align 32
  %agg.tmp23 = alloca %struct.v32bfloat16, align 32
  %agg.tmp24 = alloca %struct.v16bfloat16, align 32
  %agg.tmp25 = alloca %struct.v16accfloat, align 32
  %custom_type.tmp26 = alloca %struct.v16accfloat, align 32
  %agg.tmp29 = alloca %struct.v32bfloat16, align 32
  %acc1 = alloca %struct.v16accfloat, align 32
  %agg.tmp30 = alloca %struct.v16accfloat, align 32
  %custom_type.tmp31 = alloca %struct.v16accfloat, align 32
  %agg.tmp33 = alloca %struct.v16bfloat16, align 32
  %agg.tmp36 = alloca %struct.v32bfloat16, align 32
  %agg.tmp37 = alloca %struct.v16bfloat16, align 32
  %agg.tmp38 = alloca %struct.v16accfloat, align 32
  %agg.tmp42 = alloca %struct.v32bfloat16, align 32
  %agg.tmp43 = alloca %struct.v16accfloat, align 32
  %agg.tmp44 = alloca %struct.v16accfloat, align 32
  %agg.tmp45 = alloca %struct.v16accfloat, align 32
  %agg.tmp46 = alloca %struct.v16accfloat, align 32
  %agg.tmp47 = alloca %struct.v16accfloat, align 32
  store %struct.v16float %v1.coerce, ptr %v1, align 32
  store %struct.v16float %v2.coerce, ptr %v2, align 32
  store %struct.v16accfloat %acc.coerce, ptr %acc, align 32
  call addrspace(1) void @llvm.dbg.declare(metadata ptr %v1, metadata !2990, metadata !DIExpression()), !dbg !3005
  call addrspace(1) void @llvm.dbg.declare(metadata ptr %v2, metadata !2991, metadata !DIExpression()), !dbg !3006
  call addrspace(1) void @llvm.dbg.declare(metadata ptr %acc, metadata !2992, metadata !DIExpression()), !dbg !3007
  store i32 %zero_acc, ptr %zero_acc.addr, align 4, !tbaa !1755
  call addrspace(1) void @llvm.dbg.declare(metadata ptr %zero_acc.addr, metadata !2993, metadata !DIExpression()), !dbg !3008
  store i32 %sub_mul, ptr %sub_mul.addr, align 4, !tbaa !1755
  call addrspace(1) void @llvm.dbg.declare(metadata ptr %sub_mul.addr, metadata !2994, metadata !DIExpression()), !dbg !3009
  store i32 %sub_acc1, ptr %sub_acc1.addr, align 4, !tbaa !1755
  call addrspace(1) void @llvm.dbg.declare(metadata ptr %sub_acc1.addr, metadata !2995, metadata !DIExpression()), !dbg !3010
  store %struct.v32bfloat16 undef, ptr %a, align 32, !dbg !3011
  call addrspace(1) void @llvm.lifetime.start.p0(i64 64, ptr %a) #22, !dbg !3011
  call addrspace(1) void @llvm.dbg.declare(metadata ptr %a, metadata !2996, metadata !DIExpression()), !dbg !3012
  %call = call addrspace(1) %struct.v32bfloat16 @_Z29broadcast_zero_to_v32bfloat16v() #24, !dbg !3013
  %0 = getelementptr inbounds %struct.v32bfloat16, ptr %a, i32 0, i32 0, !dbg !3013
  %1 = extractvalue %struct.v32bfloat16 %call, 0, !dbg !3013
  store %struct.ipd.custom_type.v128int4.v128int4 %1, ptr %0, align 32, !dbg !3013
  store %struct.v32bfloat16 undef, ptr %b, align 32, !dbg !3014
  call addrspace(1) void @llvm.lifetime.start.p0(i64 64, ptr %b) #22, !dbg !3014
  call addrspace(1) void @llvm.dbg.declare(metadata ptr %b, metadata !2997, metadata !DIExpression()), !dbg !3015
  %call1 = call addrspace(1) %struct.v32bfloat16 @_Z29broadcast_zero_to_v32bfloat16v() #24, !dbg !3016
  %2 = getelementptr inbounds %struct.v32bfloat16, ptr %b, i32 0, i32 0, !dbg !3016
  %3 = extractvalue %struct.v32bfloat16 %call1, 0, !dbg !3016
  store %struct.ipd.custom_type.v128int4.v128int4 %3, ptr %2, align 32, !dbg !3016
  store %struct.v32bfloat16 undef, ptr %c, align 32, !dbg !3017
  call addrspace(1) void @llvm.lifetime.start.p0(i64 64, ptr %c) #22, !dbg !3017
  call addrspace(1) void @llvm.dbg.declare(metadata ptr %c, metadata !2998, metadata !DIExpression()), !dbg !3018
  %call2 = call addrspace(1) %struct.v32bfloat16 @_Z29broadcast_zero_to_v32bfloat16v() #24, !dbg !3019
  %4 = getelementptr inbounds %struct.v32bfloat16, ptr %c, i32 0, i32 0, !dbg !3019
  %5 = extractvalue %struct.v32bfloat16 %call2, 0, !dbg !3019
  store %struct.ipd.custom_type.v128int4.v128int4 %5, ptr %4, align 32, !dbg !3019
  store %struct.v32bfloat16 undef, ptr %d, align 32, !dbg !3020
  call addrspace(1) void @llvm.lifetime.start.p0(i64 64, ptr %d) #22, !dbg !3020
  call addrspace(1) void @llvm.dbg.declare(metadata ptr %d, metadata !2999, metadata !DIExpression()), !dbg !3021
  %call3 = call addrspace(1) %struct.v32bfloat16 @_Z29broadcast_zero_to_v32bfloat16v() #24, !dbg !3022
  %6 = getelementptr inbounds %struct.v32bfloat16, ptr %d, i32 0, i32 0, !dbg !3022
  %7 = extractvalue %struct.v32bfloat16 %call3, 0, !dbg !3022
  store %struct.ipd.custom_type.v128int4.v128int4 %7, ptr %6, align 32, !dbg !3022
  store %struct.v32bfloat16 undef, ptr %e, align 32, !dbg !3023
  call addrspace(1) void @llvm.lifetime.start.p0(i64 64, ptr %e) #22, !dbg !3023
  call addrspace(1) void @llvm.dbg.declare(metadata ptr %e, metadata !3000, metadata !DIExpression()), !dbg !3024
  %call4 = call addrspace(1) %struct.v32bfloat16 @_Z29broadcast_zero_to_v32bfloat16v() #24, !dbg !3025
  %8 = getelementptr inbounds %struct.v32bfloat16, ptr %e, i32 0, i32 0, !dbg !3025
  %9 = extractvalue %struct.v32bfloat16 %call4, 0, !dbg !3025
  store %struct.ipd.custom_type.v128int4.v128int4 %9, ptr %8, align 32, !dbg !3025
  store %struct.v32bfloat16 undef, ptr %f, align 32, !dbg !3026
  call addrspace(1) void @llvm.lifetime.start.p0(i64 64, ptr %f) #22, !dbg !3026
  call addrspace(1) void @llvm.dbg.declare(metadata ptr %f, metadata !3001, metadata !DIExpression()), !dbg !3027
  %call5 = call addrspace(1) %struct.v32bfloat16 @_Z29broadcast_zero_to_v32bfloat16v() #24, !dbg !3028
  %10 = getelementptr inbounds %struct.v32bfloat16, ptr %f, i32 0, i32 0, !dbg !3028
  %11 = extractvalue %struct.v32bfloat16 %call5, 0, !dbg !3028
  store %struct.ipd.custom_type.v128int4.v128int4 %11, ptr %10, align 32, !dbg !3028
  store %struct.v32bfloat16 undef, ptr %dummy0, align 32, !dbg !3029
  call addrspace(1) void @llvm.lifetime.start.p0(i64 64, ptr %dummy0) #22, !dbg !3029
  call addrspace(1) void @llvm.dbg.declare(metadata ptr %dummy0, metadata !3002, metadata !DIExpression()), !dbg !3030
  %call6 = call addrspace(1) %struct.v32bfloat16 @_Z28broadcast_one_to_v32bfloat16v() #24, !dbg !3031
  %12 = getelementptr inbounds %struct.v32bfloat16, ptr %dummy0, i32 0, i32 0, !dbg !3031
  %13 = extractvalue %struct.v32bfloat16 %call6, 0, !dbg !3031
  store %struct.ipd.custom_type.v128int4.v128int4 %13, ptr %12, align 32, !dbg !3031
  %14 = load %struct.v16float, ptr %v1, align 32, !dbg !3032, !tbaa !2099
  call addrspace(1) void @_ZN11v16accfloatC2E8v16float(ptr nonnull align 32 dereferenceable(64) %custom_type.tmp, %struct.v16float %14) #27, !dbg !3032
  %15 = load %struct.v16accfloat, ptr %custom_type.tmp, align 32, !dbg !3032, !tbaa !2252
  store %struct.v16accfloat %15, ptr %agg.tmp7, align 32, !dbg !3032, !tbaa !2252
  %16 = load %struct.v16accfloat, ptr %agg.tmp7, align 32, !dbg !3033, !tbaa !2252
  %call8 = call addrspace(1) %struct.v16bfloat16 @_Z14to_v16bfloat1611v16accfloat(%struct.v16accfloat %16) #24, !dbg !3033
  %17 = getelementptr inbounds %struct.v16bfloat16, ptr %agg.tmp, i32 0, i32 0, !dbg !3033
  %18 = extractvalue %struct.v16bfloat16 %call8, 0, !dbg !3033
  store %struct.ipd.custom_type.v64int4.v64int4 %18, ptr %17, align 32, !dbg !3033
  %19 = load %struct.v32bfloat16, ptr %a, align 32, !dbg !3034, !tbaa !2099
  %20 = load %struct.v16bfloat16, ptr %agg.tmp, align 32, !dbg !3034, !tbaa !2194
  %call9 = call addrspace(1) %struct.v32bfloat16 @_Z6insert11v32bfloat16i11v16bfloat16(%struct.v32bfloat16 %19, i32 0, %struct.v16bfloat16 %20) #24, !dbg !3034
  %21 = getelementptr inbounds %struct.v32bfloat16, ptr %agg.tmp10, i32 0, i32 0, !dbg !3034
  %22 = extractvalue %struct.v32bfloat16 %call9, 0, !dbg !3034
  store %struct.ipd.custom_type.v128int4.v128int4 %22, ptr %21, align 32, !dbg !3034
  %23 = load %struct.v32bfloat16, ptr %agg.tmp10, align 32, !dbg !3035, !tbaa !2099
  store %struct.v32bfloat16 %23, ptr %a, align 32, !dbg !3035, !tbaa !2099
  store %struct.v16accfloat undef, ptr %acc0, align 32, !dbg !3036
  call addrspace(1) void @llvm.lifetime.start.p0(i64 64, ptr %acc0) #22, !dbg !3036
  call addrspace(1) void @llvm.dbg.declare(metadata ptr %acc0, metadata !3003, metadata !DIExpression()), !dbg !3037
  %24 = load %struct.v16float, ptr %v1, align 32, !dbg !3038, !tbaa !2099
  call addrspace(1) void @_ZN11v16accfloatC2E8v16float(ptr nonnull align 32 dereferenceable(64) %custom_type.tmp12, %struct.v16float %24) #27, !dbg !3038
  %25 = load %struct.v16accfloat, ptr %custom_type.tmp12, align 32, !dbg !3038, !tbaa !2252
  store %struct.v16accfloat %25, ptr %agg.tmp11, align 32, !dbg !3038, !tbaa !2252
  %26 = load %struct.v32bfloat16, ptr %a, align 32, !dbg !3039, !tbaa !2099
  %27 = load %struct.v32bfloat16, ptr %dummy0, align 32, !dbg !3039, !tbaa !2099
  %28 = load %struct.v16accfloat, ptr %agg.tmp11, align 32, !dbg !3039, !tbaa !2252
  %call13 = call addrspace(1) %struct.v16accfloat @_Z13msc_elem_16_211v32bfloat16S_11v16accfloat(%struct.v32bfloat16 %26, %struct.v32bfloat16 %27, %struct.v16accfloat %28) #24, !dbg !3039
  %29 = getelementptr inbounds %struct.v16accfloat, ptr %acc0, i32 0, i32 0, !dbg !3039
  %30 = extractvalue %struct.v16accfloat %call13, 0, !dbg !3039
  store %struct.ipd.custom_type.v16acc32.v16acc32 %30, ptr %29, align 32, !dbg !3039
  %31 = load %struct.v16accfloat, ptr %acc0, align 32, !dbg !3040, !tbaa !2252
  %call15 = call addrspace(1) %struct.v16bfloat16 @_Z14to_v16bfloat1611v16accfloat(%struct.v16accfloat %31) #24, !dbg !3040
  %32 = getelementptr inbounds %struct.v16bfloat16, ptr %agg.tmp14, i32 0, i32 0, !dbg !3040
  %33 = extractvalue %struct.v16bfloat16 %call15, 0, !dbg !3040
  store %struct.ipd.custom_type.v64int4.v64int4 %33, ptr %32, align 32, !dbg !3040
  %34 = load %struct.v32bfloat16, ptr %b, align 32, !dbg !3041, !tbaa !2099
  %35 = load %struct.v16bfloat16, ptr %agg.tmp14, align 32, !dbg !3041, !tbaa !2194
  %call16 = call addrspace(1) %struct.v32bfloat16 @_Z6insert11v32bfloat16i11v16bfloat16(%struct.v32bfloat16 %34, i32 0, %struct.v16bfloat16 %35) #24, !dbg !3041
  %36 = getelementptr inbounds %struct.v32bfloat16, ptr %agg.tmp17, i32 0, i32 0, !dbg !3041
  %37 = extractvalue %struct.v32bfloat16 %call16, 0, !dbg !3041
  store %struct.ipd.custom_type.v128int4.v128int4 %37, ptr %36, align 32, !dbg !3041
  %38 = load %struct.v32bfloat16, ptr %agg.tmp17, align 32, !dbg !3042, !tbaa !2099
  store %struct.v32bfloat16 %38, ptr %b, align 32, !dbg !3042, !tbaa !2099
  %39 = load %struct.v32bfloat16, ptr %b, align 32, !dbg !3043, !tbaa !2099
  %40 = load %struct.v32bfloat16, ptr %dummy0, align 32, !dbg !3043, !tbaa !2099
  %41 = load %struct.v16accfloat, ptr %acc0, align 32, !dbg !3043, !tbaa !2252
  %call20 = call addrspace(1) %struct.v16accfloat @_Z13msc_elem_16_211v32bfloat16S_11v16accfloat(%struct.v32bfloat16 %39, %struct.v32bfloat16 %40, %struct.v16accfloat %41) #24, !dbg !3043
  %42 = getelementptr inbounds %struct.v16accfloat, ptr %agg.tmp19, i32 0, i32 0, !dbg !3043
  %43 = extractvalue %struct.v16accfloat %call20, 0, !dbg !3043
  store %struct.ipd.custom_type.v16acc32.v16acc32 %43, ptr %42, align 32, !dbg !3043
  %44 = load %struct.v16accfloat, ptr %agg.tmp19, align 32, !dbg !3044, !tbaa !2252
  %call21 = call addrspace(1) %struct.v16bfloat16 @_Z14to_v16bfloat1611v16accfloat(%struct.v16accfloat %44) #24, !dbg !3044
  %45 = getelementptr inbounds %struct.v16bfloat16, ptr %agg.tmp18, i32 0, i32 0, !dbg !3044
  %46 = extractvalue %struct.v16bfloat16 %call21, 0, !dbg !3044
  store %struct.ipd.custom_type.v64int4.v64int4 %46, ptr %45, align 32, !dbg !3044
  %47 = load %struct.v32bfloat16, ptr %c, align 32, !dbg !3045, !tbaa !2099
  %48 = load %struct.v16bfloat16, ptr %agg.tmp18, align 32, !dbg !3045, !tbaa !2194
  %call22 = call addrspace(1) %struct.v32bfloat16 @_Z6insert11v32bfloat16i11v16bfloat16(%struct.v32bfloat16 %47, i32 0, %struct.v16bfloat16 %48) #24, !dbg !3045
  %49 = getelementptr inbounds %struct.v32bfloat16, ptr %agg.tmp23, i32 0, i32 0, !dbg !3045
  %50 = extractvalue %struct.v32bfloat16 %call22, 0, !dbg !3045
  store %struct.ipd.custom_type.v128int4.v128int4 %50, ptr %49, align 32, !dbg !3045
  %51 = load %struct.v32bfloat16, ptr %agg.tmp23, align 32, !dbg !3046, !tbaa !2099
  store %struct.v32bfloat16 %51, ptr %c, align 32, !dbg !3046, !tbaa !2099
  %52 = load %struct.v16float, ptr %v2, align 32, !dbg !3047, !tbaa !2099
  call addrspace(1) void @_ZN11v16accfloatC2E8v16float(ptr nonnull align 32 dereferenceable(64) %custom_type.tmp26, %struct.v16float %52) #27, !dbg !3047
  %53 = load %struct.v16accfloat, ptr %custom_type.tmp26, align 32, !dbg !3047, !tbaa !2252
  store %struct.v16accfloat %53, ptr %agg.tmp25, align 32, !dbg !3047, !tbaa !2252
  %54 = load %struct.v16accfloat, ptr %agg.tmp25, align 32, !dbg !3048, !tbaa !2252
  %call27 = call addrspace(1) %struct.v16bfloat16 @_Z14to_v16bfloat1611v16accfloat(%struct.v16accfloat %54) #24, !dbg !3048
  %55 = getelementptr inbounds %struct.v16bfloat16, ptr %agg.tmp24, i32 0, i32 0, !dbg !3048
  %56 = extractvalue %struct.v16bfloat16 %call27, 0, !dbg !3048
  store %struct.ipd.custom_type.v64int4.v64int4 %56, ptr %55, align 32, !dbg !3048
  %57 = load %struct.v32bfloat16, ptr %d, align 32, !dbg !3049, !tbaa !2099
  %58 = load %struct.v16bfloat16, ptr %agg.tmp24, align 32, !dbg !3049, !tbaa !2194
  %call28 = call addrspace(1) %struct.v32bfloat16 @_Z6insert11v32bfloat16i11v16bfloat16(%struct.v32bfloat16 %57, i32 0, %struct.v16bfloat16 %58) #24, !dbg !3049
  %59 = getelementptr inbounds %struct.v32bfloat16, ptr %agg.tmp29, i32 0, i32 0, !dbg !3049
  %60 = extractvalue %struct.v32bfloat16 %call28, 0, !dbg !3049
  store %struct.ipd.custom_type.v128int4.v128int4 %60, ptr %59, align 32, !dbg !3049
  %61 = load %struct.v32bfloat16, ptr %agg.tmp29, align 32, !dbg !3050, !tbaa !2099
  store %struct.v32bfloat16 %61, ptr %d, align 32, !dbg !3050, !tbaa !2099
  store %struct.v16accfloat undef, ptr %acc1, align 32, !dbg !3051
  call addrspace(1) void @llvm.lifetime.start.p0(i64 64, ptr %acc1) #22, !dbg !3051
  call addrspace(1) void @llvm.dbg.declare(metadata ptr %acc1, metadata !3004, metadata !DIExpression()), !dbg !3052
  %62 = load %struct.v16float, ptr %v2, align 32, !dbg !3053, !tbaa !2099
  call addrspace(1) void @_ZN11v16accfloatC2E8v16float(ptr nonnull align 32 dereferenceable(64) %custom_type.tmp31, %struct.v16float %62) #27, !dbg !3053
  %63 = load %struct.v16accfloat, ptr %custom_type.tmp31, align 32, !dbg !3053, !tbaa !2252
  store %struct.v16accfloat %63, ptr %agg.tmp30, align 32, !dbg !3053, !tbaa !2252
  %64 = load %struct.v32bfloat16, ptr %d, align 32, !dbg !3054, !tbaa !2099
  %65 = load %struct.v32bfloat16, ptr %dummy0, align 32, !dbg !3054, !tbaa !2099
  %66 = load %struct.v16accfloat, ptr %agg.tmp30, align 32, !dbg !3054, !tbaa !2252
  %call32 = call addrspace(1) %struct.v16accfloat @_Z13msc_elem_16_211v32bfloat16S_11v16accfloat(%struct.v32bfloat16 %64, %struct.v32bfloat16 %65, %struct.v16accfloat %66) #24, !dbg !3054
  %67 = getelementptr inbounds %struct.v16accfloat, ptr %acc1, i32 0, i32 0, !dbg !3054
  %68 = extractvalue %struct.v16accfloat %call32, 0, !dbg !3054
  store %struct.ipd.custom_type.v16acc32.v16acc32 %68, ptr %67, align 32, !dbg !3054
  %69 = load %struct.v16accfloat, ptr %acc1, align 32, !dbg !3055, !tbaa !2252
  %call34 = call addrspace(1) %struct.v16bfloat16 @_Z14to_v16bfloat1611v16accfloat(%struct.v16accfloat %69) #24, !dbg !3055
  %70 = getelementptr inbounds %struct.v16bfloat16, ptr %agg.tmp33, i32 0, i32 0, !dbg !3055
  %71 = extractvalue %struct.v16bfloat16 %call34, 0, !dbg !3055
  store %struct.ipd.custom_type.v64int4.v64int4 %71, ptr %70, align 32, !dbg !3055
  %72 = load %struct.v32bfloat16, ptr %e, align 32, !dbg !3056, !tbaa !2099
  %73 = load %struct.v16bfloat16, ptr %agg.tmp33, align 32, !dbg !3056, !tbaa !2194
  %call35 = call addrspace(1) %struct.v32bfloat16 @_Z6insert11v32bfloat16i11v16bfloat16(%struct.v32bfloat16 %72, i32 0, %struct.v16bfloat16 %73) #24, !dbg !3056
  %74 = getelementptr inbounds %struct.v32bfloat16, ptr %agg.tmp36, i32 0, i32 0, !dbg !3056
  %75 = extractvalue %struct.v32bfloat16 %call35, 0, !dbg !3056
  store %struct.ipd.custom_type.v128int4.v128int4 %75, ptr %74, align 32, !dbg !3056
  %76 = load %struct.v32bfloat16, ptr %agg.tmp36, align 32, !dbg !3057, !tbaa !2099
  store %struct.v32bfloat16 %76, ptr %e, align 32, !dbg !3057, !tbaa !2099
  %77 = load %struct.v32bfloat16, ptr %e, align 32, !dbg !3058, !tbaa !2099
  %78 = load %struct.v32bfloat16, ptr %dummy0, align 32, !dbg !3058, !tbaa !2099
  %79 = load %struct.v16accfloat, ptr %acc1, align 32, !dbg !3058, !tbaa !2252
  %call39 = call addrspace(1) %struct.v16accfloat @_Z13msc_elem_16_211v32bfloat16S_11v16accfloat(%struct.v32bfloat16 %77, %struct.v32bfloat16 %78, %struct.v16accfloat %79) #24, !dbg !3058
  %80 = getelementptr inbounds %struct.v16accfloat, ptr %agg.tmp38, i32 0, i32 0, !dbg !3058
  %81 = extractvalue %struct.v16accfloat %call39, 0, !dbg !3058
  store %struct.ipd.custom_type.v16acc32.v16acc32 %81, ptr %80, align 32, !dbg !3058
  %82 = load %struct.v16accfloat, ptr %agg.tmp38, align 32, !dbg !3059, !tbaa !2252
  %call40 = call addrspace(1) %struct.v16bfloat16 @_Z14to_v16bfloat1611v16accfloat(%struct.v16accfloat %82) #24, !dbg !3059
  %83 = getelementptr inbounds %struct.v16bfloat16, ptr %agg.tmp37, i32 0, i32 0, !dbg !3059
  %84 = extractvalue %struct.v16bfloat16 %call40, 0, !dbg !3059
  store %struct.ipd.custom_type.v64int4.v64int4 %84, ptr %83, align 32, !dbg !3059
  %85 = load %struct.v32bfloat16, ptr %f, align 32, !dbg !3060, !tbaa !2099
  %86 = load %struct.v16bfloat16, ptr %agg.tmp37, align 32, !dbg !3060, !tbaa !2194
  %call41 = call addrspace(1) %struct.v32bfloat16 @_Z6insert11v32bfloat16i11v16bfloat16(%struct.v32bfloat16 %85, i32 0, %struct.v16bfloat16 %86) #24, !dbg !3060
  %87 = getelementptr inbounds %struct.v32bfloat16, ptr %agg.tmp42, i32 0, i32 0, !dbg !3060
  %88 = extractvalue %struct.v32bfloat16 %call41, 0, !dbg !3060
  store %struct.ipd.custom_type.v128int4.v128int4 %88, ptr %87, align 32, !dbg !3060
  %89 = load %struct.v32bfloat16, ptr %agg.tmp42, align 32, !dbg !3061, !tbaa !2099
  store %struct.v32bfloat16 %89, ptr %f, align 32, !dbg !3061, !tbaa !2099
  %90 = load i32, ptr %sub_mul.addr, align 4, !dbg !3062, !tbaa !1755
  %91 = load %struct.v32bfloat16, ptr %a, align 32, !dbg !3063, !tbaa !2099
  %92 = load %struct.v32bfloat16, ptr %f, align 32, !dbg !3063, !tbaa !2099
  %call48 = call addrspace(1) %struct.v16accfloat @_Z18mul_elem_16_2_conf11v32bfloat16S_i(%struct.v32bfloat16 %91, %struct.v32bfloat16 %92, i32 %90) #24, !dbg !3063
  %93 = getelementptr inbounds %struct.v16accfloat, ptr %agg.tmp47, i32 0, i32 0, !dbg !3063
  %94 = extractvalue %struct.v16accfloat %call48, 0, !dbg !3063
  store %struct.ipd.custom_type.v16acc32.v16acc32 %94, ptr %93, align 32, !dbg !3063
  %95 = load i32, ptr %sub_mul.addr, align 4, !dbg !3064, !tbaa !1755
  %96 = load %struct.v32bfloat16, ptr %b, align 32, !dbg !3065, !tbaa !2099
  %97 = load %struct.v32bfloat16, ptr %e, align 32, !dbg !3065, !tbaa !2099
  %98 = load %struct.v16accfloat, ptr %agg.tmp47, align 32, !dbg !3065, !tbaa !2252
  %call49 = call addrspace(1) %struct.v16accfloat @_Z18mac_elem_16_2_conf11v32bfloat16S_11v16accfloatiii(%struct.v32bfloat16 %96, %struct.v32bfloat16 %97, %struct.v16accfloat %98, i32 0, i32 %95, i32 0) #24, !dbg !3065
  %99 = getelementptr inbounds %struct.v16accfloat, ptr %agg.tmp46, i32 0, i32 0, !dbg !3065
  %100 = extractvalue %struct.v16accfloat %call49, 0, !dbg !3065
  store %struct.ipd.custom_type.v16acc32.v16acc32 %100, ptr %99, align 32, !dbg !3065
  %101 = load i32, ptr %sub_mul.addr, align 4, !dbg !3066, !tbaa !1755
  %102 = load %struct.v32bfloat16, ptr %d, align 32, !dbg !3067, !tbaa !2099
  %103 = load %struct.v32bfloat16, ptr %c, align 32, !dbg !3067, !tbaa !2099
  %104 = load %struct.v16accfloat, ptr %agg.tmp46, align 32, !dbg !3067, !tbaa !2252
  %call50 = call addrspace(1) %struct.v16accfloat @_Z18mac_elem_16_2_conf11v32bfloat16S_11v16accfloatiii(%struct.v32bfloat16 %102, %struct.v32bfloat16 %103, %struct.v16accfloat %104, i32 0, i32 %101, i32 0) #24, !dbg !3067
  %105 = getelementptr inbounds %struct.v16accfloat, ptr %agg.tmp45, i32 0, i32 0, !dbg !3067
  %106 = extractvalue %struct.v16accfloat %call50, 0, !dbg !3067
  store %struct.ipd.custom_type.v16acc32.v16acc32 %106, ptr %105, align 32, !dbg !3067
  %107 = load i32, ptr %sub_mul.addr, align 4, !dbg !3068, !tbaa !1755
  %108 = load %struct.v32bfloat16, ptr %b, align 32, !dbg !3069, !tbaa !2099
  %109 = load %struct.v32bfloat16, ptr %d, align 32, !dbg !3069, !tbaa !2099
  %110 = load %struct.v16accfloat, ptr %agg.tmp45, align 32, !dbg !3069, !tbaa !2252
  %call51 = call addrspace(1) %struct.v16accfloat @_Z18mac_elem_16_2_conf11v32bfloat16S_11v16accfloatiii(%struct.v32bfloat16 %108, %struct.v32bfloat16 %109, %struct.v16accfloat %110, i32 0, i32 %107, i32 0) #24, !dbg !3069
  %111 = getelementptr inbounds %struct.v16accfloat, ptr %agg.tmp44, i32 0, i32 0, !dbg !3069
  %112 = extractvalue %struct.v16accfloat %call51, 0, !dbg !3069
  store %struct.ipd.custom_type.v16acc32.v16acc32 %112, ptr %111, align 32, !dbg !3069
  %113 = load i32, ptr %sub_mul.addr, align 4, !dbg !3070, !tbaa !1755
  %114 = load %struct.v32bfloat16, ptr %a, align 32, !dbg !3071, !tbaa !2099
  %115 = load %struct.v32bfloat16, ptr %e, align 32, !dbg !3071, !tbaa !2099
  %116 = load %struct.v16accfloat, ptr %agg.tmp44, align 32, !dbg !3071, !tbaa !2252
  %call52 = call addrspace(1) %struct.v16accfloat @_Z18mac_elem_16_2_conf11v32bfloat16S_11v16accfloatiii(%struct.v32bfloat16 %114, %struct.v32bfloat16 %115, %struct.v16accfloat %116, i32 0, i32 %113, i32 0) #24, !dbg !3071
  %117 = getelementptr inbounds %struct.v16accfloat, ptr %agg.tmp43, i32 0, i32 0, !dbg !3071
  %118 = extractvalue %struct.v16accfloat %call52, 0, !dbg !3071
  store %struct.ipd.custom_type.v16acc32.v16acc32 %118, ptr %117, align 32, !dbg !3071
  %119 = load i32, ptr %zero_acc.addr, align 4, !dbg !3072, !tbaa !1755
  %120 = load i32, ptr %sub_mul.addr, align 4, !dbg !3073, !tbaa !1755
  %121 = load i32, ptr %sub_acc1.addr, align 4, !dbg !3074, !tbaa !1755
  %122 = load %struct.v32bfloat16, ptr %a, align 32, !dbg !3075, !tbaa !2099
  %123 = load %struct.v32bfloat16, ptr %d, align 32, !dbg !3075, !tbaa !2099
  %124 = load %struct.v16accfloat, ptr %acc, align 32, !dbg !3075, !tbaa !2252
  %125 = load %struct.v16accfloat, ptr %agg.tmp43, align 32, !dbg !3075, !tbaa !2252
  %call53 = call addrspace(1) %struct.v16accfloat @_Z21addmac_elem_16_2_conf11v32bfloat16S_11v16accfloatS0_iiii(%struct.v32bfloat16 %122, %struct.v32bfloat16 %123, %struct.v16accfloat %124, %struct.v16accfloat %125, i32 %119, i32 %120, i32 %121, i32 0) #24, !dbg !3075
  %126 = getelementptr inbounds %struct.v16accfloat, ptr %retval, i32 0, i32 0, !dbg !3075
  %127 = extractvalue %struct.v16accfloat %call53, 0, !dbg !3075
  store %struct.ipd.custom_type.v16acc32.v16acc32 %127, ptr %126, align 32, !dbg !3075
  call addrspace(1) void @llvm.lifetime.end.p0(i64 64, ptr %acc1) #22, !dbg !3076
  call addrspace(1) void @llvm.lifetime.end.p0(i64 64, ptr %acc0) #22, !dbg !3076
  call addrspace(1) void @llvm.lifetime.end.p0(i64 64, ptr %dummy0) #22, !dbg !3076
  call addrspace(1) void @llvm.lifetime.end.p0(i64 64, ptr %f) #22, !dbg !3076
  call addrspace(1) void @llvm.lifetime.end.p0(i64 64, ptr %e) #22, !dbg !3076
  call addrspace(1) void @llvm.lifetime.end.p0(i64 64, ptr %d) #22, !dbg !3076
  call addrspace(1) void @llvm.lifetime.end.p0(i64 64, ptr %c) #22, !dbg !3076
  call addrspace(1) void @llvm.lifetime.end.p0(i64 64, ptr %b) #22, !dbg !3076
  call addrspace(1) void @llvm.lifetime.end.p0(i64 64, ptr %a) #22, !dbg !3076
  %128 = load %struct.v16accfloat, ptr %retval, align 32, !dbg !3076
  ret %struct.v16accfloat %128, !dbg !3076
}

; Function Attrs: alwaysinline mustprogress nounwind
define linkonce_odr dso_local %struct.v32bfloat16 @_Z29broadcast_zero_to_v32bfloat16v() addrspace(1) #6 comdat {
entry:
  %custom_type.tmp = alloca %struct.v32bfloat16, align 32
  %agg.tmp = alloca %struct.v32uint16, align 32
  %call = call addrspace(1) %struct.v32uint16 @_Z13broadcast_u16t(i16 zeroext 0) #26
  %0 = getelementptr inbounds %struct.v32uint16, ptr %agg.tmp, i32 0, i32 0
  %1 = extractvalue %struct.v32uint16 %call, 0
  store %struct.ipd.custom_type.v128int4.v128int4 %1, ptr %0, align 32
  %2 = load %struct.v32uint16, ptr %agg.tmp, align 32, !tbaa !2099
  call addrspace(1) void @_ZN11v32bfloat16C2E9v32uint16(ptr nonnull align 32 dereferenceable(64) %custom_type.tmp, %struct.v32uint16 %2) #27
  %3 = load %struct.v32bfloat16, ptr %custom_type.tmp, align 32, !tbaa !2099
  ret %struct.v32bfloat16 %3
}

; Function Attrs: alwaysinline mustprogress nounwind
define linkonce_odr dso_local %struct.v32bfloat16 @_Z28broadcast_one_to_v32bfloat16v() addrspace(1) #6 comdat {
entry:
  %custom_type.tmp = alloca %struct.v32bfloat16, align 32
  %agg.tmp = alloca %struct.v32uint16, align 32
  %call = call addrspace(1) %struct.v32uint16 @_Z13broadcast_u16t(i16 zeroext 16256) #26
  %0 = getelementptr inbounds %struct.v32uint16, ptr %agg.tmp, i32 0, i32 0
  %1 = extractvalue %struct.v32uint16 %call, 0
  store %struct.ipd.custom_type.v128int4.v128int4 %1, ptr %0, align 32
  %2 = load %struct.v32uint16, ptr %agg.tmp, align 32, !tbaa !2099
  call addrspace(1) void @_ZN11v32bfloat16C2E9v32uint16(ptr nonnull align 32 dereferenceable(64) %custom_type.tmp, %struct.v32uint16 %2) #27
  %3 = load %struct.v32bfloat16, ptr %custom_type.tmp, align 32, !tbaa !2099
  ret %struct.v32bfloat16 %3
}

; Function Attrs: alwaysinline mustprogress nounwind
define linkonce_odr dso_local %struct.v32bfloat16 @_Z6insert11v32bfloat16i11v16bfloat16(%struct.v32bfloat16 %a.coerce, i32 %idx, %struct.v16bfloat16 %b.coerce) addrspace(1) #6 comdat {
entry:
  %retval = alloca %struct.v32bfloat16, align 32
  %a = alloca %struct.v32bfloat16, align 32
  %b = alloca %struct.v16bfloat16, align 32
  %idx.addr = alloca i32, align 4
  store %struct.v32bfloat16 %a.coerce, ptr %a, align 32
  store %struct.v16bfloat16 %b.coerce, ptr %b, align 32
  store i32 %idx, ptr %idx.addr, align 4, !tbaa !1755
  %0 = load i32, ptr %idx.addr, align 4, !tbaa !1755
  %rem = srem i32 %0, 2
  %cmp = icmp eq i32 %rem, 0
  br i1 %cmp, label %if.then, label %if.else

if.then:                                          ; preds = %entry
  %1 = load %struct.v32bfloat16, ptr %a, align 32, !tbaa !2099
  %2 = load %struct.v16bfloat16, ptr %b, align 32, !tbaa !2194
  %call = call addrspace(1) %struct.v32bfloat16 @_ZN12me_primitive6upd_xlE11v32bfloat1611v16bfloat16(%struct.v32bfloat16 %1, %struct.v16bfloat16 %2) #26
  %3 = getelementptr inbounds %struct.v32bfloat16, ptr %retval, i32 0, i32 0
  %4 = extractvalue %struct.v32bfloat16 %call, 0
  store %struct.ipd.custom_type.v128int4.v128int4 %4, ptr %3, align 32
  br label %return

if.else:                                          ; preds = %entry
  %5 = load %struct.v32bfloat16, ptr %a, align 32, !tbaa !2099
  %6 = load %struct.v16bfloat16, ptr %b, align 32, !tbaa !2194
  %call1 = call addrspace(1) %struct.v32bfloat16 @_ZN12me_primitive6upd_xhE11v32bfloat1611v16bfloat16(%struct.v32bfloat16 %5, %struct.v16bfloat16 %6) #26
  %7 = getelementptr inbounds %struct.v32bfloat16, ptr %retval, i32 0, i32 0
  %8 = extractvalue %struct.v32bfloat16 %call1, 0
  store %struct.ipd.custom_type.v128int4.v128int4 %8, ptr %7, align 32
  br label %return

return:                                           ; preds = %if.else, %if.then
  %9 = load %struct.v32bfloat16, ptr %retval, align 32
  ret %struct.v32bfloat16 %9
}

; Function Attrs: alwaysinline mustprogress nounwind
define linkonce_odr dso_local %struct.v16bfloat16 @_Z14to_v16bfloat1611v16accfloat(%struct.v16accfloat %acc.coerce) addrspace(1) #6 comdat {
entry:
  %retval = alloca %struct.v16bfloat16, align 32
  %acc = alloca %struct.v16accfloat, align 32
  %agg.tmp = alloca %struct.ipd.custom_type.uint4_t.uint4_t, align 1
  %custom_type.tmp = alloca %struct.ipd.custom_type.uint4_t.uint4_t, align 1
  %agg.tmp1 = alloca %struct.ipd.custom_type.uint5_t.uint5_t, align 4
  %custom_type.tmp2 = alloca %struct.ipd.custom_type.uint5_t.uint5_t, align 4
  store %struct.v16accfloat %acc.coerce, ptr %acc, align 32
  %call = call addrspace(1) i32 @_Z7get_rndv() #24
  call addrspace(1) void @_ZN7uint4_tC2Ej(ptr nonnull align 1 dereferenceable(1) %custom_type.tmp, i32 %call) #24
  %0 = load %struct.ipd.custom_type.uint4_t.uint4_t, ptr %custom_type.tmp, align 1, !tbaa !3077
  store %struct.ipd.custom_type.uint4_t.uint4_t %0, ptr %agg.tmp, align 1, !tbaa !3077
  %call3 = call addrspace(1) i32 @_Z14get_fp2bf_maskv() #24
  call addrspace(1) void @_ZN7uint5_tC2Ej(ptr nonnull align 4 dereferenceable(1) %custom_type.tmp2, i32 %call3) #24
  %1 = load %struct.ipd.custom_type.uint5_t.uint5_t, ptr %custom_type.tmp2, align 4, !tbaa !3079
  store %struct.ipd.custom_type.uint5_t.uint5_t %1, ptr %agg.tmp1, align 4, !tbaa !3079
  %2 = load %struct.v16accfloat, ptr %acc, align 32, !tbaa !2252
  %3 = load %struct.ipd.custom_type.uint4_t.uint4_t, ptr %agg.tmp, align 1, !tbaa !3077
  %4 = load %struct.ipd.custom_type.uint5_t.uint5_t, ptr %agg.tmp1, align 4, !tbaa !3079
  %call4 = call addrspace(1) %struct.v16bfloat16 @_ZN12me_primitive3srsE11v16accfloat7uint4_t7uint5_t(%struct.v16accfloat %2, %struct.ipd.custom_type.uint4_t.uint4_t %3, %struct.ipd.custom_type.uint5_t.uint5_t %4) #26
  %5 = getelementptr inbounds %struct.v16bfloat16, ptr %retval, i32 0, i32 0
  %6 = extractvalue %struct.v16bfloat16 %call4, 0
  store %struct.ipd.custom_type.v64int4.v64int4 %6, ptr %5, align 32
  %7 = load %struct.v16bfloat16, ptr %retval, align 32
  ret %struct.v16bfloat16 %7
}

; Function Attrs: alwaysinline nounwind
define linkonce_odr dso_local void @_ZN11v16accfloatC2E8v16float(ptr nonnull align 32 dereferenceable(64) %this, %struct.v16float %a0.coerce) unnamed_addr addrspace(1) #16 comdat align 2 {
entry:
  %a0 = alloca %struct.v16float, align 32
  %this.addr = alloca ptr, align 4
  %custom_type.tmp = alloca %struct.ipd.custom_type.v16acc32.v16acc32, align 32
  %agg.tmp = alloca %struct.v16accfloat, align 32
  store %struct.v16float %a0.coerce, ptr %a0, align 32
  store ptr %this, ptr %this.addr, align 4, !tbaa !1542
  %this1 = load ptr, ptr %this.addr, align 4
  %mw = getelementptr inbounds %struct.v16accfloat, ptr %this1, i32 0, i32 0
  %0 = load %struct.ipd.custom_type.v16acc32.v16acc32, ptr %custom_type.tmp, align 32, !tbaa !2252
  store %struct.ipd.custom_type.v16acc32.v16acc32 %0, ptr %mw, align 32, !tbaa !2252
  %1 = load %struct.v16float, ptr %a0, align 32, !tbaa !2099
  %call = call x86_regcallcc addrspace(1) %struct.v16accfloat @__regcall3__chessintr_v16accfloat_v16accfloat_v16float(%struct.v16float %1) #25
  %2 = getelementptr inbounds %struct.v16accfloat, ptr %agg.tmp, i32 0, i32 0
  %3 = extractvalue %struct.v16accfloat %call, 0
  store %struct.ipd.custom_type.v16acc32.v16acc32 %3, ptr %2, align 32
  %4 = load %struct.v16accfloat, ptr %agg.tmp, align 32, !tbaa !2252
  store %struct.v16accfloat %4, ptr %this1, align 32, !tbaa !2252
  ret void
}

; Function Attrs: alwaysinline mustprogress nounwind
define linkonce_odr dso_local %struct.v16accfloat @_Z13msc_elem_16_211v32bfloat16S_11v16accfloat(%struct.v32bfloat16 %a.coerce, %struct.v32bfloat16 %b.coerce, %struct.v16accfloat %acc1.coerce) addrspace(1) #6 comdat {
entry:
  %retval = alloca %struct.v16accfloat, align 32
  %a = alloca %struct.v32bfloat16, align 32
  %b = alloca %struct.v32bfloat16, align 32
  %acc1 = alloca %struct.v16accfloat, align 32
  %conf = alloca i32, align 4
  %agg.tmp = alloca %struct.ipd.custom_type.uint1_t.uint1_t, align 4
  %custom_type.tmp = alloca %struct.ipd.custom_type.uint1_t.uint1_t, align 4
  %agg.tmp1 = alloca %struct.ipd.custom_type.uint5_t.uint5_t, align 4
  %custom_type.tmp2 = alloca %struct.ipd.custom_type.uint5_t.uint5_t, align 4
  store %struct.v32bfloat16 %a.coerce, ptr %a, align 32
  store %struct.v32bfloat16 %b.coerce, ptr %b, align 32
  store %struct.v16accfloat %acc1.coerce, ptr %acc1, align 32
  store i32 undef, ptr %conf, align 4
  call addrspace(1) void @llvm.lifetime.start.p0(i64 4, ptr %conf) #22
  %call = call addrspace(1) i32 @_ZN9me_detail15compute_controlEiiiiiiiiiii(i32 0, i32 0, i32 2, i32 3, i32 1, i32 0, i32 0, i32 0, i32 0, i32 0, i32 0) #24
  store i32 %call, ptr %conf, align 4, !tbaa !1755
  %0 = load i32, ptr %conf, align 4, !tbaa !1755
  call addrspace(1) void @_ZN7uint1_tC2Ei(ptr nonnull align 4 dereferenceable(1) %custom_type.tmp, i32 1) #24
  %1 = load %struct.ipd.custom_type.uint1_t.uint1_t, ptr %custom_type.tmp, align 4, !tbaa !2321
  store %struct.ipd.custom_type.uint1_t.uint1_t %1, ptr %agg.tmp, align 4, !tbaa !2321
  %call3 = call addrspace(1) i32 @_Z17get_fpmulmac_maskv() #24
  call addrspace(1) void @_ZN7uint5_tC2Ej(ptr nonnull align 4 dereferenceable(1) %custom_type.tmp2, i32 %call3) #24
  %2 = load %struct.ipd.custom_type.uint5_t.uint5_t, ptr %custom_type.tmp2, align 4, !tbaa !3079
  store %struct.ipd.custom_type.uint5_t.uint5_t %2, ptr %agg.tmp1, align 4, !tbaa !3079
  %3 = load %struct.v32bfloat16, ptr %a, align 32, !tbaa !2099
  %4 = load %struct.v32bfloat16, ptr %b, align 32, !tbaa !2099
  %5 = load %struct.v16accfloat, ptr %acc1, align 32, !tbaa !2252
  %6 = load %struct.ipd.custom_type.uint1_t.uint1_t, ptr %agg.tmp, align 4, !tbaa !2321
  %7 = load %struct.ipd.custom_type.uint5_t.uint5_t, ptr %agg.tmp1, align 4, !tbaa !3079
  %call4 = call addrspace(1) %struct.v16accfloat @_ZN12me_primitive10mac16_confE11v32bfloat16S0_11v16accfloati7uint1_t7uint5_t(%struct.v32bfloat16 %3, %struct.v32bfloat16 %4, %struct.v16accfloat %5, i32 %0, %struct.ipd.custom_type.uint1_t.uint1_t %6, %struct.ipd.custom_type.uint5_t.uint5_t %7) #26
  %8 = getelementptr inbounds %struct.v16accfloat, ptr %retval, i32 0, i32 0
  %9 = extractvalue %struct.v16accfloat %call4, 0
  store %struct.ipd.custom_type.v16acc32.v16acc32 %9, ptr %8, align 32
  call addrspace(1) void @llvm.lifetime.end.p0(i64 4, ptr %conf) #22
  %10 = load %struct.v16accfloat, ptr %retval, align 32
  ret %struct.v16accfloat %10
}

; Function Attrs: alwaysinline mustprogress nounwind
define linkonce_odr dso_local %struct.v16accfloat @_Z21addmac_elem_16_2_conf11v32bfloat16S_11v16accfloatS0_iiii(%struct.v32bfloat16 %a.coerce, %struct.v32bfloat16 %b.coerce, %struct.v16accfloat %acc1.coerce, %struct.v16accfloat %acc2.coerce, i32 %zero_acc1, i32 %sub_mul, i32 %sub_acc1, i32 %sub_acc2) addrspace(1) #6 comdat {
entry:
  %retval = alloca %struct.v16accfloat, align 32
  %a = alloca %struct.v32bfloat16, align 32
  %b = alloca %struct.v32bfloat16, align 32
  %acc1 = alloca %struct.v16accfloat, align 32
  %acc2 = alloca %struct.v16accfloat, align 32
  %zero_acc1.addr = alloca i32, align 4
  %sub_mul.addr = alloca i32, align 4
  %sub_acc1.addr = alloca i32, align 4
  %sub_acc2.addr = alloca i32, align 4
  %conf = alloca i32, align 4
  %agg.tmp = alloca %struct.ipd.custom_type.uint1_t.uint1_t, align 4
  %custom_type.tmp = alloca %struct.ipd.custom_type.uint1_t.uint1_t, align 4
  %agg.tmp1 = alloca %struct.ipd.custom_type.uint5_t.uint5_t, align 4
  %custom_type.tmp2 = alloca %struct.ipd.custom_type.uint5_t.uint5_t, align 4
  store %struct.v32bfloat16 %a.coerce, ptr %a, align 32
  store %struct.v32bfloat16 %b.coerce, ptr %b, align 32
  store %struct.v16accfloat %acc1.coerce, ptr %acc1, align 32
  store %struct.v16accfloat %acc2.coerce, ptr %acc2, align 32
  store i32 %zero_acc1, ptr %zero_acc1.addr, align 4, !tbaa !1755
  store i32 %sub_mul, ptr %sub_mul.addr, align 4, !tbaa !1755
  store i32 %sub_acc1, ptr %sub_acc1.addr, align 4, !tbaa !1755
  store i32 %sub_acc2, ptr %sub_acc2.addr, align 4, !tbaa !1755
  store i32 undef, ptr %conf, align 4
  call addrspace(1) void @llvm.lifetime.start.p0(i64 4, ptr %conf) #22
  %0 = load i32, ptr %zero_acc1.addr, align 4, !tbaa !1755
  %1 = load i32, ptr %sub_mul.addr, align 4, !tbaa !1755
  %2 = load i32, ptr %sub_acc1.addr, align 4, !tbaa !1755
  %3 = load i32, ptr %sub_acc2.addr, align 4, !tbaa !1755
  %call = call addrspace(1) i32 @_ZN9me_detail15compute_controlEiiiiiiiiiii(i32 0, i32 0, i32 2, i32 3, i32 1, i32 %0, i32 0, i32 %1, i32 %2, i32 %3, i32 0) #24
  store i32 %call, ptr %conf, align 4, !tbaa !1755
  %4 = load i32, ptr %conf, align 4, !tbaa !1755
  call addrspace(1) void @_ZN7uint1_tC2Ei(ptr nonnull align 4 dereferenceable(1) %custom_type.tmp, i32 0) #24
  %5 = load %struct.ipd.custom_type.uint1_t.uint1_t, ptr %custom_type.tmp, align 4, !tbaa !2321
  store %struct.ipd.custom_type.uint1_t.uint1_t %5, ptr %agg.tmp, align 4, !tbaa !2321
  %call3 = call addrspace(1) i32 @_Z17get_fpmulmac_maskv() #24
  call addrspace(1) void @_ZN7uint5_tC2Ej(ptr nonnull align 4 dereferenceable(1) %custom_type.tmp2, i32 %call3) #24
  %6 = load %struct.ipd.custom_type.uint5_t.uint5_t, ptr %custom_type.tmp2, align 4, !tbaa !3079
  store %struct.ipd.custom_type.uint5_t.uint5_t %6, ptr %agg.tmp1, align 4, !tbaa !3079
  %7 = load %struct.v32bfloat16, ptr %a, align 32, !tbaa !2099
  %8 = load %struct.v32bfloat16, ptr %b, align 32, !tbaa !2099
  %9 = load %struct.v16accfloat, ptr %acc1, align 32, !tbaa !2252
  %10 = load %struct.v16accfloat, ptr %acc2, align 32, !tbaa !2252
  %11 = load %struct.ipd.custom_type.uint1_t.uint1_t, ptr %agg.tmp, align 4, !tbaa !2321
  %12 = load %struct.ipd.custom_type.uint5_t.uint5_t, ptr %agg.tmp1, align 4, !tbaa !3079
  %call4 = call addrspace(1) %struct.v16accfloat @_ZN12me_primitive13addmac16_confE11v32bfloat16S0_11v16accfloatS1_i7uint1_t7uint5_t(%struct.v32bfloat16 %7, %struct.v32bfloat16 %8, %struct.v16accfloat %9, %struct.v16accfloat %10, i32 %4, %struct.ipd.custom_type.uint1_t.uint1_t %11, %struct.ipd.custom_type.uint5_t.uint5_t %12) #26
  %13 = getelementptr inbounds %struct.v16accfloat, ptr %retval, i32 0, i32 0
  %14 = extractvalue %struct.v16accfloat %call4, 0
  store %struct.ipd.custom_type.v16acc32.v16acc32 %14, ptr %13, align 32
  call addrspace(1) void @llvm.lifetime.end.p0(i64 4, ptr %conf) #22
  %15 = load %struct.v16accfloat, ptr %retval, align 32
  ret %struct.v16accfloat %15
}

; Function Attrs: alwaysinline mustprogress nounwind
define linkonce_odr dso_local %struct.v16accfloat @_Z18mac_elem_16_2_conf11v32bfloat16S_11v16accfloatiii(%struct.v32bfloat16 %a.coerce, %struct.v32bfloat16 %b.coerce, %struct.v16accfloat %acc1.coerce, i32 %zero_acc1, i32 %sub_mul, i32 %sub_acc1) addrspace(1) #6 comdat {
entry:
  %retval = alloca %struct.v16accfloat, align 32
  %a = alloca %struct.v32bfloat16, align 32
  %b = alloca %struct.v32bfloat16, align 32
  %acc1 = alloca %struct.v16accfloat, align 32
  %zero_acc1.addr = alloca i32, align 4
  %sub_mul.addr = alloca i32, align 4
  %sub_acc1.addr = alloca i32, align 4
  %conf = alloca i32, align 4
  %agg.tmp = alloca %struct.ipd.custom_type.uint1_t.uint1_t, align 4
  %custom_type.tmp = alloca %struct.ipd.custom_type.uint1_t.uint1_t, align 4
  %agg.tmp1 = alloca %struct.ipd.custom_type.uint5_t.uint5_t, align 4
  %custom_type.tmp2 = alloca %struct.ipd.custom_type.uint5_t.uint5_t, align 4
  store %struct.v32bfloat16 %a.coerce, ptr %a, align 32
  store %struct.v32bfloat16 %b.coerce, ptr %b, align 32
  store %struct.v16accfloat %acc1.coerce, ptr %acc1, align 32
  store i32 %zero_acc1, ptr %zero_acc1.addr, align 4, !tbaa !1755
  store i32 %sub_mul, ptr %sub_mul.addr, align 4, !tbaa !1755
  store i32 %sub_acc1, ptr %sub_acc1.addr, align 4, !tbaa !1755
  store i32 undef, ptr %conf, align 4
  call addrspace(1) void @llvm.lifetime.start.p0(i64 4, ptr %conf) #22
  %0 = load i32, ptr %zero_acc1.addr, align 4, !tbaa !1755
  %1 = load i32, ptr %sub_mul.addr, align 4, !tbaa !1755
  %2 = load i32, ptr %sub_acc1.addr, align 4, !tbaa !1755
  %call = call addrspace(1) i32 @_ZN9me_detail15compute_controlEiiiiiiiiiii(i32 0, i32 0, i32 2, i32 3, i32 1, i32 %0, i32 0, i32 %1, i32 %2, i32 0, i32 0) #24
  store i32 %call, ptr %conf, align 4, !tbaa !1755
  %3 = load i32, ptr %conf, align 4, !tbaa !1755
  call addrspace(1) void @_ZN7uint1_tC2Ei(ptr nonnull align 4 dereferenceable(1) %custom_type.tmp, i32 0) #24
  %4 = load %struct.ipd.custom_type.uint1_t.uint1_t, ptr %custom_type.tmp, align 4, !tbaa !2321
  store %struct.ipd.custom_type.uint1_t.uint1_t %4, ptr %agg.tmp, align 4, !tbaa !2321
  %call3 = call addrspace(1) i32 @_Z17get_fpmulmac_maskv() #24
  call addrspace(1) void @_ZN7uint5_tC2Ej(ptr nonnull align 4 dereferenceable(1) %custom_type.tmp2, i32 %call3) #24
  %5 = load %struct.ipd.custom_type.uint5_t.uint5_t, ptr %custom_type.tmp2, align 4, !tbaa !3079
  store %struct.ipd.custom_type.uint5_t.uint5_t %5, ptr %agg.tmp1, align 4, !tbaa !3079
  %6 = load %struct.v32bfloat16, ptr %a, align 32, !tbaa !2099
  %7 = load %struct.v32bfloat16, ptr %b, align 32, !tbaa !2099
  %8 = load %struct.v16accfloat, ptr %acc1, align 32, !tbaa !2252
  %9 = load %struct.ipd.custom_type.uint1_t.uint1_t, ptr %agg.tmp, align 4, !tbaa !2321
  %10 = load %struct.ipd.custom_type.uint5_t.uint5_t, ptr %agg.tmp1, align 4, !tbaa !3079
  %call4 = call addrspace(1) %struct.v16accfloat @_ZN12me_primitive10mac16_confE11v32bfloat16S0_11v16accfloati7uint1_t7uint5_t(%struct.v32bfloat16 %6, %struct.v32bfloat16 %7, %struct.v16accfloat %8, i32 %3, %struct.ipd.custom_type.uint1_t.uint1_t %9, %struct.ipd.custom_type.uint5_t.uint5_t %10) #26
  %11 = getelementptr inbounds %struct.v16accfloat, ptr %retval, i32 0, i32 0
  %12 = extractvalue %struct.v16accfloat %call4, 0
  store %struct.ipd.custom_type.v16acc32.v16acc32 %12, ptr %11, align 32
  call addrspace(1) void @llvm.lifetime.end.p0(i64 4, ptr %conf) #22
  %13 = load %struct.v16accfloat, ptr %retval, align 32
  ret %struct.v16accfloat %13
}

; Function Attrs: alwaysinline mustprogress nounwind
define linkonce_odr dso_local %struct.v16accfloat @_Z18mul_elem_16_2_conf11v32bfloat16S_i(%struct.v32bfloat16 %a.coerce, %struct.v32bfloat16 %b.coerce, i32 %sub_mul) addrspace(1) #6 comdat {
entry:
  %retval = alloca %struct.v16accfloat, align 32
  %a = alloca %struct.v32bfloat16, align 32
  %b = alloca %struct.v32bfloat16, align 32
  %sub_mul.addr = alloca i32, align 4
  %conf = alloca i32, align 4
  %agg.tmp = alloca %struct.ipd.custom_type.uint1_t.uint1_t, align 4
  %custom_type.tmp = alloca %struct.ipd.custom_type.uint1_t.uint1_t, align 4
  %agg.tmp1 = alloca %struct.ipd.custom_type.uint5_t.uint5_t, align 4
  %custom_type.tmp2 = alloca %struct.ipd.custom_type.uint5_t.uint5_t, align 4
  store %struct.v32bfloat16 %a.coerce, ptr %a, align 32
  store %struct.v32bfloat16 %b.coerce, ptr %b, align 32
  store i32 %sub_mul, ptr %sub_mul.addr, align 4, !tbaa !1755
  store i32 undef, ptr %conf, align 4
  call addrspace(1) void @llvm.lifetime.start.p0(i64 4, ptr %conf) #22
  %0 = load i32, ptr %sub_mul.addr, align 4, !tbaa !1755
  %call = call addrspace(1) i32 @_ZN9me_detail15compute_controlEiiiiiiiiiii(i32 0, i32 0, i32 2, i32 3, i32 1, i32 0, i32 0, i32 %0, i32 0, i32 0, i32 0) #24
  store i32 %call, ptr %conf, align 4, !tbaa !1755
  %1 = load i32, ptr %conf, align 4, !tbaa !1755
  call addrspace(1) void @_ZN7uint1_tC2Ei(ptr nonnull align 4 dereferenceable(1) %custom_type.tmp, i32 0) #24
  %2 = load %struct.ipd.custom_type.uint1_t.uint1_t, ptr %custom_type.tmp, align 4, !tbaa !2321
  store %struct.ipd.custom_type.uint1_t.uint1_t %2, ptr %agg.tmp, align 4, !tbaa !2321
  %call3 = call addrspace(1) i32 @_Z17get_fpmulmac_maskv() #24
  call addrspace(1) void @_ZN7uint5_tC2Ej(ptr nonnull align 4 dereferenceable(1) %custom_type.tmp2, i32 %call3) #24
  %3 = load %struct.ipd.custom_type.uint5_t.uint5_t, ptr %custom_type.tmp2, align 4, !tbaa !3079
  store %struct.ipd.custom_type.uint5_t.uint5_t %3, ptr %agg.tmp1, align 4, !tbaa !3079
  %4 = load %struct.v32bfloat16, ptr %a, align 32, !tbaa !2099
  %5 = load %struct.v32bfloat16, ptr %b, align 32, !tbaa !2099
  %6 = load %struct.ipd.custom_type.uint1_t.uint1_t, ptr %agg.tmp, align 4, !tbaa !2321
  %7 = load %struct.ipd.custom_type.uint5_t.uint5_t, ptr %agg.tmp1, align 4, !tbaa !3079
